
kernel/kernel:     file format elf64-littleriscv


Disassembly of section .text:

0000000080000000 <_entry>:
    80000000:	0000a117          	auipc	sp,0xa
    80000004:	18010113          	addi	sp,sp,384 # 8000a180 <stack0>
    80000008:	6505                	lui	a0,0x1
    8000000a:	f14025f3          	csrr	a1,mhartid
    8000000e:	0585                	addi	a1,a1,1
    80000010:	02b50533          	mul	a0,a0,a1
    80000014:	912a                	add	sp,sp,a0
    80000016:	078000ef          	jal	ra,8000008e <start>

000000008000001a <spin>:
    8000001a:	a001                	j	8000001a <spin>

000000008000001c <timerinit>:
// which arrive at timervec in kernelvec.S,
// which turns them into software interrupts for
// devintr() in trap.c.
void
timerinit()
{
    8000001c:	1141                	addi	sp,sp,-16
    8000001e:	e422                	sd	s0,8(sp)
    80000020:	0800                	addi	s0,sp,16
// which hart (core) is this?
static inline uint64
r_mhartid()
{
  uint64 x;
  asm volatile("csrr %0, mhartid" : "=r" (x) );
    80000022:	f14027f3          	csrr	a5,mhartid
  // each CPU has a separate source of timer interrupts.
  int id = r_mhartid();
    80000026:	0007869b          	sext.w	a3,a5

  // ask the CLINT for a timer interrupt.
  int interval = 1000000; // cycles; about 1/10th second in qemu.
  *(uint64*)CLINT_MTIMECMP(id) = *(uint64*)CLINT_MTIME + interval;
    8000002a:	0037979b          	slliw	a5,a5,0x3
    8000002e:	02004737          	lui	a4,0x2004
    80000032:	97ba                	add	a5,a5,a4
    80000034:	0200c737          	lui	a4,0x200c
    80000038:	ff873583          	ld	a1,-8(a4) # 200bff8 <_entry-0x7dff4008>
    8000003c:	000f4637          	lui	a2,0xf4
    80000040:	24060613          	addi	a2,a2,576 # f4240 <_entry-0x7ff0bdc0>
    80000044:	95b2                	add	a1,a1,a2
    80000046:	e38c                	sd	a1,0(a5)

  // prepare information in scratch[] for timervec.
  // scratch[0..2] : space for timervec to save registers.
  // scratch[3] : address of CLINT MTIMECMP register.
  // scratch[4] : desired interval (in cycles) between timer interrupts.
  uint64 *scratch = &timer_scratch[id][0];
    80000048:	00269713          	slli	a4,a3,0x2
    8000004c:	9736                	add	a4,a4,a3
    8000004e:	00371693          	slli	a3,a4,0x3
    80000052:	0000a717          	auipc	a4,0xa
    80000056:	fee70713          	addi	a4,a4,-18 # 8000a040 <timer_scratch>
    8000005a:	9736                	add	a4,a4,a3
  scratch[3] = CLINT_MTIMECMP(id);
    8000005c:	ef1c                	sd	a5,24(a4)
  scratch[4] = interval;
    8000005e:	f310                	sd	a2,32(a4)
}

static inline void 
w_mscratch(uint64 x)
{
  asm volatile("csrw mscratch, %0" : : "r" (x));
    80000060:	34071073          	csrw	mscratch,a4
  asm volatile("csrw mtvec, %0" : : "r" (x));
    80000064:	00007797          	auipc	a5,0x7
    80000068:	b2c78793          	addi	a5,a5,-1236 # 80006b90 <timervec>
    8000006c:	30579073          	csrw	mtvec,a5
  asm volatile("csrr %0, mstatus" : "=r" (x) );
    80000070:	300027f3          	csrr	a5,mstatus

  // set the machine-mode trap handler.
  w_mtvec((uint64)timervec);

  // enable machine-mode interrupts.
  w_mstatus(r_mstatus() | MSTATUS_MIE);
    80000074:	0087e793          	ori	a5,a5,8
  asm volatile("csrw mstatus, %0" : : "r" (x));
    80000078:	30079073          	csrw	mstatus,a5
  asm volatile("csrr %0, mie" : "=r" (x) );
    8000007c:	304027f3          	csrr	a5,mie

  // enable machine-mode timer interrupts.
  w_mie(r_mie() | MIE_MTIE);
    80000080:	0807e793          	ori	a5,a5,128
  asm volatile("csrw mie, %0" : : "r" (x));
    80000084:	30479073          	csrw	mie,a5
}
    80000088:	6422                	ld	s0,8(sp)
    8000008a:	0141                	addi	sp,sp,16
    8000008c:	8082                	ret

000000008000008e <start>:
{
    8000008e:	1141                	addi	sp,sp,-16
    80000090:	e406                	sd	ra,8(sp)
    80000092:	e022                	sd	s0,0(sp)
    80000094:	0800                	addi	s0,sp,16
  asm volatile("csrr %0, mstatus" : "=r" (x) );
    80000096:	300027f3          	csrr	a5,mstatus
  x &= ~MSTATUS_MPP_MASK;
    8000009a:	7779                	lui	a4,0xffffe
    8000009c:	7ff70713          	addi	a4,a4,2047 # ffffffffffffe7ff <end+0xffffffff7ffcb7ff>
    800000a0:	8ff9                	and	a5,a5,a4
  x |= MSTATUS_MPP_S;
    800000a2:	6705                	lui	a4,0x1
    800000a4:	80070713          	addi	a4,a4,-2048 # 800 <_entry-0x7ffff800>
    800000a8:	8fd9                	or	a5,a5,a4
  asm volatile("csrw mstatus, %0" : : "r" (x));
    800000aa:	30079073          	csrw	mstatus,a5
  asm volatile("csrw mepc, %0" : : "r" (x));
    800000ae:	00001797          	auipc	a5,0x1
    800000b2:	dbe78793          	addi	a5,a5,-578 # 80000e6c <main>
    800000b6:	34179073          	csrw	mepc,a5
  asm volatile("csrw satp, %0" : : "r" (x));
    800000ba:	4781                	li	a5,0
    800000bc:	18079073          	csrw	satp,a5
  asm volatile("csrw medeleg, %0" : : "r" (x));
    800000c0:	67c1                	lui	a5,0x10
    800000c2:	17fd                	addi	a5,a5,-1
    800000c4:	30279073          	csrw	medeleg,a5
  asm volatile("csrw mideleg, %0" : : "r" (x));
    800000c8:	30379073          	csrw	mideleg,a5
  asm volatile("csrr %0, sie" : "=r" (x) );
    800000cc:	104027f3          	csrr	a5,sie
  w_sie(r_sie() | SIE_SEIE | SIE_STIE | SIE_SSIE);
    800000d0:	2227e793          	ori	a5,a5,546
  asm volatile("csrw sie, %0" : : "r" (x));
    800000d4:	10479073          	csrw	sie,a5
  timerinit();
    800000d8:	00000097          	auipc	ra,0x0
    800000dc:	f44080e7          	jalr	-188(ra) # 8000001c <timerinit>
  asm volatile("csrr %0, mhartid" : "=r" (x) );
    800000e0:	f14027f3          	csrr	a5,mhartid
  w_tp(id);
    800000e4:	2781                	sext.w	a5,a5
}

static inline void 
w_tp(uint64 x)
{
  asm volatile("mv tp, %0" : : "r" (x));
    800000e6:	823e                	mv	tp,a5
  asm volatile("mret");
    800000e8:	30200073          	mret
}
    800000ec:	60a2                	ld	ra,8(sp)
    800000ee:	6402                	ld	s0,0(sp)
    800000f0:	0141                	addi	sp,sp,16
    800000f2:	8082                	ret

00000000800000f4 <consolewrite>:
//
// user write()s to the console go here.
//
int
consolewrite(int user_src, uint64 src, int n)
{
    800000f4:	715d                	addi	sp,sp,-80
    800000f6:	e486                	sd	ra,72(sp)
    800000f8:	e0a2                	sd	s0,64(sp)
    800000fa:	fc26                	sd	s1,56(sp)
    800000fc:	f84a                	sd	s2,48(sp)
    800000fe:	f44e                	sd	s3,40(sp)
    80000100:	f052                	sd	s4,32(sp)
    80000102:	ec56                	sd	s5,24(sp)
    80000104:	0880                	addi	s0,sp,80
  int i;

  for(i = 0; i < n; i++){
    80000106:	04c05663          	blez	a2,80000152 <consolewrite+0x5e>
    8000010a:	8a2a                	mv	s4,a0
    8000010c:	84ae                	mv	s1,a1
    8000010e:	89b2                	mv	s3,a2
    80000110:	4901                	li	s2,0
    char c;
    if(either_copyin(&c, user_src, src+i, 1) == -1)
    80000112:	5afd                	li	s5,-1
    80000114:	4685                	li	a3,1
    80000116:	8626                	mv	a2,s1
    80000118:	85d2                	mv	a1,s4
    8000011a:	fbf40513          	addi	a0,s0,-65
    8000011e:	00002097          	auipc	ra,0x2
    80000122:	510080e7          	jalr	1296(ra) # 8000262e <either_copyin>
    80000126:	01550c63          	beq	a0,s5,8000013e <consolewrite+0x4a>
      break;
    uartputc(c);
    8000012a:	fbf44503          	lbu	a0,-65(s0)
    8000012e:	00000097          	auipc	ra,0x0
    80000132:	77a080e7          	jalr	1914(ra) # 800008a8 <uartputc>
  for(i = 0; i < n; i++){
    80000136:	2905                	addiw	s2,s2,1
    80000138:	0485                	addi	s1,s1,1
    8000013a:	fd299de3          	bne	s3,s2,80000114 <consolewrite+0x20>
  }

  return i;
}
    8000013e:	854a                	mv	a0,s2
    80000140:	60a6                	ld	ra,72(sp)
    80000142:	6406                	ld	s0,64(sp)
    80000144:	74e2                	ld	s1,56(sp)
    80000146:	7942                	ld	s2,48(sp)
    80000148:	79a2                	ld	s3,40(sp)
    8000014a:	7a02                	ld	s4,32(sp)
    8000014c:	6ae2                	ld	s5,24(sp)
    8000014e:	6161                	addi	sp,sp,80
    80000150:	8082                	ret
  for(i = 0; i < n; i++){
    80000152:	4901                	li	s2,0
    80000154:	b7ed                	j	8000013e <consolewrite+0x4a>

0000000080000156 <consoleread>:
// user_dist indicates whether dst is a user
// or kernel address.
//
int
consoleread(int user_dst, uint64 dst, int n)
{
    80000156:	7159                	addi	sp,sp,-112
    80000158:	f486                	sd	ra,104(sp)
    8000015a:	f0a2                	sd	s0,96(sp)
    8000015c:	eca6                	sd	s1,88(sp)
    8000015e:	e8ca                	sd	s2,80(sp)
    80000160:	e4ce                	sd	s3,72(sp)
    80000162:	e0d2                	sd	s4,64(sp)
    80000164:	fc56                	sd	s5,56(sp)
    80000166:	f85a                	sd	s6,48(sp)
    80000168:	f45e                	sd	s7,40(sp)
    8000016a:	f062                	sd	s8,32(sp)
    8000016c:	ec66                	sd	s9,24(sp)
    8000016e:	e86a                	sd	s10,16(sp)
    80000170:	1880                	addi	s0,sp,112
    80000172:	8aaa                	mv	s5,a0
    80000174:	8a2e                	mv	s4,a1
    80000176:	89b2                	mv	s3,a2
  uint target;
  int c;
  char cbuf;

  target = n;
    80000178:	00060b1b          	sext.w	s6,a2
  acquire(&cons.lock);
    8000017c:	00012517          	auipc	a0,0x12
    80000180:	00450513          	addi	a0,a0,4 # 80012180 <cons>
    80000184:	00001097          	auipc	ra,0x1
    80000188:	a3e080e7          	jalr	-1474(ra) # 80000bc2 <acquire>
  while(n > 0){
    // wait until interrupt handler has put some
    // input into cons.buffer.
    while(cons.r == cons.w){
    8000018c:	00012497          	auipc	s1,0x12
    80000190:	ff448493          	addi	s1,s1,-12 # 80012180 <cons>
      if(myproc()->killed){
        release(&cons.lock);
        return -1;
      }
      sleep(&cons.r, &cons.lock);
    80000194:	00012917          	auipc	s2,0x12
    80000198:	08490913          	addi	s2,s2,132 # 80012218 <cons+0x98>
    }

    c = cons.buf[cons.r++ % INPUT_BUF];

    if(c == C('D')){  // end-of-file
    8000019c:	4b91                	li	s7,4
      break;
    }

    // copy the input byte to the user-space buffer.
    cbuf = c;
    if(either_copyout(user_dst, dst, &cbuf, 1) == -1)
    8000019e:	5c7d                	li	s8,-1
      break;

    dst++;
    --n;

    if(c == '\n'){
    800001a0:	4ca9                	li	s9,10
  while(n > 0){
    800001a2:	07305863          	blez	s3,80000212 <consoleread+0xbc>
    while(cons.r == cons.w){
    800001a6:	0984a783          	lw	a5,152(s1)
    800001aa:	09c4a703          	lw	a4,156(s1)
    800001ae:	02f71463          	bne	a4,a5,800001d6 <consoleread+0x80>
      if(myproc()->killed){
    800001b2:	00002097          	auipc	ra,0x2
    800001b6:	b80080e7          	jalr	-1152(ra) # 80001d32 <myproc>
    800001ba:	551c                	lw	a5,40(a0)
    800001bc:	e7b5                	bnez	a5,80000228 <consoleread+0xd2>
      sleep(&cons.r, &cons.lock);
    800001be:	85a6                	mv	a1,s1
    800001c0:	854a                	mv	a0,s2
    800001c2:	00002097          	auipc	ra,0x2
    800001c6:	068080e7          	jalr	104(ra) # 8000222a <sleep>
    while(cons.r == cons.w){
    800001ca:	0984a783          	lw	a5,152(s1)
    800001ce:	09c4a703          	lw	a4,156(s1)
    800001d2:	fef700e3          	beq	a4,a5,800001b2 <consoleread+0x5c>
    c = cons.buf[cons.r++ % INPUT_BUF];
    800001d6:	0017871b          	addiw	a4,a5,1
    800001da:	08e4ac23          	sw	a4,152(s1)
    800001de:	07f7f713          	andi	a4,a5,127
    800001e2:	9726                	add	a4,a4,s1
    800001e4:	01874703          	lbu	a4,24(a4)
    800001e8:	00070d1b          	sext.w	s10,a4
    if(c == C('D')){  // end-of-file
    800001ec:	077d0563          	beq	s10,s7,80000256 <consoleread+0x100>
    cbuf = c;
    800001f0:	f8e40fa3          	sb	a4,-97(s0)
    if(either_copyout(user_dst, dst, &cbuf, 1) == -1)
    800001f4:	4685                	li	a3,1
    800001f6:	f9f40613          	addi	a2,s0,-97
    800001fa:	85d2                	mv	a1,s4
    800001fc:	8556                	mv	a0,s5
    800001fe:	00002097          	auipc	ra,0x2
    80000202:	3da080e7          	jalr	986(ra) # 800025d8 <either_copyout>
    80000206:	01850663          	beq	a0,s8,80000212 <consoleread+0xbc>
    dst++;
    8000020a:	0a05                	addi	s4,s4,1
    --n;
    8000020c:	39fd                	addiw	s3,s3,-1
    if(c == '\n'){
    8000020e:	f99d1ae3          	bne	s10,s9,800001a2 <consoleread+0x4c>
      // a whole line has arrived, return to
      // the user-level read().
      break;
    }
  }
  release(&cons.lock);
    80000212:	00012517          	auipc	a0,0x12
    80000216:	f6e50513          	addi	a0,a0,-146 # 80012180 <cons>
    8000021a:	00001097          	auipc	ra,0x1
    8000021e:	a5c080e7          	jalr	-1444(ra) # 80000c76 <release>

  return target - n;
    80000222:	413b053b          	subw	a0,s6,s3
    80000226:	a811                	j	8000023a <consoleread+0xe4>
        release(&cons.lock);
    80000228:	00012517          	auipc	a0,0x12
    8000022c:	f5850513          	addi	a0,a0,-168 # 80012180 <cons>
    80000230:	00001097          	auipc	ra,0x1
    80000234:	a46080e7          	jalr	-1466(ra) # 80000c76 <release>
        return -1;
    80000238:	557d                	li	a0,-1
}
    8000023a:	70a6                	ld	ra,104(sp)
    8000023c:	7406                	ld	s0,96(sp)
    8000023e:	64e6                	ld	s1,88(sp)
    80000240:	6946                	ld	s2,80(sp)
    80000242:	69a6                	ld	s3,72(sp)
    80000244:	6a06                	ld	s4,64(sp)
    80000246:	7ae2                	ld	s5,56(sp)
    80000248:	7b42                	ld	s6,48(sp)
    8000024a:	7ba2                	ld	s7,40(sp)
    8000024c:	7c02                	ld	s8,32(sp)
    8000024e:	6ce2                	ld	s9,24(sp)
    80000250:	6d42                	ld	s10,16(sp)
    80000252:	6165                	addi	sp,sp,112
    80000254:	8082                	ret
      if(n < target){
    80000256:	0009871b          	sext.w	a4,s3
    8000025a:	fb677ce3          	bgeu	a4,s6,80000212 <consoleread+0xbc>
        cons.r--;
    8000025e:	00012717          	auipc	a4,0x12
    80000262:	faf72d23          	sw	a5,-70(a4) # 80012218 <cons+0x98>
    80000266:	b775                	j	80000212 <consoleread+0xbc>

0000000080000268 <consputc>:
{
    80000268:	1141                	addi	sp,sp,-16
    8000026a:	e406                	sd	ra,8(sp)
    8000026c:	e022                	sd	s0,0(sp)
    8000026e:	0800                	addi	s0,sp,16
  if(c == BACKSPACE){
    80000270:	10000793          	li	a5,256
    80000274:	00f50a63          	beq	a0,a5,80000288 <consputc+0x20>
    uartputc_sync(c);
    80000278:	00000097          	auipc	ra,0x0
    8000027c:	55e080e7          	jalr	1374(ra) # 800007d6 <uartputc_sync>
}
    80000280:	60a2                	ld	ra,8(sp)
    80000282:	6402                	ld	s0,0(sp)
    80000284:	0141                	addi	sp,sp,16
    80000286:	8082                	ret
    uartputc_sync('\b'); uartputc_sync(' '); uartputc_sync('\b');
    80000288:	4521                	li	a0,8
    8000028a:	00000097          	auipc	ra,0x0
    8000028e:	54c080e7          	jalr	1356(ra) # 800007d6 <uartputc_sync>
    80000292:	02000513          	li	a0,32
    80000296:	00000097          	auipc	ra,0x0
    8000029a:	540080e7          	jalr	1344(ra) # 800007d6 <uartputc_sync>
    8000029e:	4521                	li	a0,8
    800002a0:	00000097          	auipc	ra,0x0
    800002a4:	536080e7          	jalr	1334(ra) # 800007d6 <uartputc_sync>
    800002a8:	bfe1                	j	80000280 <consputc+0x18>

00000000800002aa <consoleintr>:
// do erase/kill processing, append to cons.buf,
// wake up consoleread() if a whole line has arrived.
//
void
consoleintr(int c)
{
    800002aa:	1101                	addi	sp,sp,-32
    800002ac:	ec06                	sd	ra,24(sp)
    800002ae:	e822                	sd	s0,16(sp)
    800002b0:	e426                	sd	s1,8(sp)
    800002b2:	e04a                	sd	s2,0(sp)
    800002b4:	1000                	addi	s0,sp,32
    800002b6:	84aa                	mv	s1,a0
  acquire(&cons.lock);
    800002b8:	00012517          	auipc	a0,0x12
    800002bc:	ec850513          	addi	a0,a0,-312 # 80012180 <cons>
    800002c0:	00001097          	auipc	ra,0x1
    800002c4:	902080e7          	jalr	-1790(ra) # 80000bc2 <acquire>

  switch(c){
    800002c8:	47d5                	li	a5,21
    800002ca:	0af48663          	beq	s1,a5,80000376 <consoleintr+0xcc>
    800002ce:	0297ca63          	blt	a5,s1,80000302 <consoleintr+0x58>
    800002d2:	47a1                	li	a5,8
    800002d4:	0ef48763          	beq	s1,a5,800003c2 <consoleintr+0x118>
    800002d8:	47c1                	li	a5,16
    800002da:	10f49a63          	bne	s1,a5,800003ee <consoleintr+0x144>
  case C('P'):  // Print process list.
    procdump();
    800002de:	00002097          	auipc	ra,0x2
    800002e2:	3a6080e7          	jalr	934(ra) # 80002684 <procdump>
      }
    }
    break;
  }
  
  release(&cons.lock);
    800002e6:	00012517          	auipc	a0,0x12
    800002ea:	e9a50513          	addi	a0,a0,-358 # 80012180 <cons>
    800002ee:	00001097          	auipc	ra,0x1
    800002f2:	988080e7          	jalr	-1656(ra) # 80000c76 <release>
}
    800002f6:	60e2                	ld	ra,24(sp)
    800002f8:	6442                	ld	s0,16(sp)
    800002fa:	64a2                	ld	s1,8(sp)
    800002fc:	6902                	ld	s2,0(sp)
    800002fe:	6105                	addi	sp,sp,32
    80000300:	8082                	ret
  switch(c){
    80000302:	07f00793          	li	a5,127
    80000306:	0af48e63          	beq	s1,a5,800003c2 <consoleintr+0x118>
    if(c != 0 && cons.e-cons.r < INPUT_BUF){
    8000030a:	00012717          	auipc	a4,0x12
    8000030e:	e7670713          	addi	a4,a4,-394 # 80012180 <cons>
    80000312:	0a072783          	lw	a5,160(a4)
    80000316:	09872703          	lw	a4,152(a4)
    8000031a:	9f99                	subw	a5,a5,a4
    8000031c:	07f00713          	li	a4,127
    80000320:	fcf763e3          	bltu	a4,a5,800002e6 <consoleintr+0x3c>
      c = (c == '\r') ? '\n' : c;
    80000324:	47b5                	li	a5,13
    80000326:	0cf48763          	beq	s1,a5,800003f4 <consoleintr+0x14a>
      consputc(c);
    8000032a:	8526                	mv	a0,s1
    8000032c:	00000097          	auipc	ra,0x0
    80000330:	f3c080e7          	jalr	-196(ra) # 80000268 <consputc>
      cons.buf[cons.e++ % INPUT_BUF] = c;
    80000334:	00012797          	auipc	a5,0x12
    80000338:	e4c78793          	addi	a5,a5,-436 # 80012180 <cons>
    8000033c:	0a07a703          	lw	a4,160(a5)
    80000340:	0017069b          	addiw	a3,a4,1
    80000344:	0006861b          	sext.w	a2,a3
    80000348:	0ad7a023          	sw	a3,160(a5)
    8000034c:	07f77713          	andi	a4,a4,127
    80000350:	97ba                	add	a5,a5,a4
    80000352:	00978c23          	sb	s1,24(a5)
      if(c == '\n' || c == C('D') || cons.e == cons.r+INPUT_BUF){
    80000356:	47a9                	li	a5,10
    80000358:	0cf48563          	beq	s1,a5,80000422 <consoleintr+0x178>
    8000035c:	4791                	li	a5,4
    8000035e:	0cf48263          	beq	s1,a5,80000422 <consoleintr+0x178>
    80000362:	00012797          	auipc	a5,0x12
    80000366:	eb67a783          	lw	a5,-330(a5) # 80012218 <cons+0x98>
    8000036a:	0807879b          	addiw	a5,a5,128
    8000036e:	f6f61ce3          	bne	a2,a5,800002e6 <consoleintr+0x3c>
      cons.buf[cons.e++ % INPUT_BUF] = c;
    80000372:	863e                	mv	a2,a5
    80000374:	a07d                	j	80000422 <consoleintr+0x178>
    while(cons.e != cons.w &&
    80000376:	00012717          	auipc	a4,0x12
    8000037a:	e0a70713          	addi	a4,a4,-502 # 80012180 <cons>
    8000037e:	0a072783          	lw	a5,160(a4)
    80000382:	09c72703          	lw	a4,156(a4)
          cons.buf[(cons.e-1) % INPUT_BUF] != '\n'){
    80000386:	00012497          	auipc	s1,0x12
    8000038a:	dfa48493          	addi	s1,s1,-518 # 80012180 <cons>
    while(cons.e != cons.w &&
    8000038e:	4929                	li	s2,10
    80000390:	f4f70be3          	beq	a4,a5,800002e6 <consoleintr+0x3c>
          cons.buf[(cons.e-1) % INPUT_BUF] != '\n'){
    80000394:	37fd                	addiw	a5,a5,-1
    80000396:	07f7f713          	andi	a4,a5,127
    8000039a:	9726                	add	a4,a4,s1
    while(cons.e != cons.w &&
    8000039c:	01874703          	lbu	a4,24(a4)
    800003a0:	f52703e3          	beq	a4,s2,800002e6 <consoleintr+0x3c>
      cons.e--;
    800003a4:	0af4a023          	sw	a5,160(s1)
      consputc(BACKSPACE);
    800003a8:	10000513          	li	a0,256
    800003ac:	00000097          	auipc	ra,0x0
    800003b0:	ebc080e7          	jalr	-324(ra) # 80000268 <consputc>
    while(cons.e != cons.w &&
    800003b4:	0a04a783          	lw	a5,160(s1)
    800003b8:	09c4a703          	lw	a4,156(s1)
    800003bc:	fcf71ce3          	bne	a4,a5,80000394 <consoleintr+0xea>
    800003c0:	b71d                	j	800002e6 <consoleintr+0x3c>
    if(cons.e != cons.w){
    800003c2:	00012717          	auipc	a4,0x12
    800003c6:	dbe70713          	addi	a4,a4,-578 # 80012180 <cons>
    800003ca:	0a072783          	lw	a5,160(a4)
    800003ce:	09c72703          	lw	a4,156(a4)
    800003d2:	f0f70ae3          	beq	a4,a5,800002e6 <consoleintr+0x3c>
      cons.e--;
    800003d6:	37fd                	addiw	a5,a5,-1
    800003d8:	00012717          	auipc	a4,0x12
    800003dc:	e4f72423          	sw	a5,-440(a4) # 80012220 <cons+0xa0>
      consputc(BACKSPACE);
    800003e0:	10000513          	li	a0,256
    800003e4:	00000097          	auipc	ra,0x0
    800003e8:	e84080e7          	jalr	-380(ra) # 80000268 <consputc>
    800003ec:	bded                	j	800002e6 <consoleintr+0x3c>
    if(c != 0 && cons.e-cons.r < INPUT_BUF){
    800003ee:	ee048ce3          	beqz	s1,800002e6 <consoleintr+0x3c>
    800003f2:	bf21                	j	8000030a <consoleintr+0x60>
      consputc(c);
    800003f4:	4529                	li	a0,10
    800003f6:	00000097          	auipc	ra,0x0
    800003fa:	e72080e7          	jalr	-398(ra) # 80000268 <consputc>
      cons.buf[cons.e++ % INPUT_BUF] = c;
    800003fe:	00012797          	auipc	a5,0x12
    80000402:	d8278793          	addi	a5,a5,-638 # 80012180 <cons>
    80000406:	0a07a703          	lw	a4,160(a5)
    8000040a:	0017069b          	addiw	a3,a4,1
    8000040e:	0006861b          	sext.w	a2,a3
    80000412:	0ad7a023          	sw	a3,160(a5)
    80000416:	07f77713          	andi	a4,a4,127
    8000041a:	97ba                	add	a5,a5,a4
    8000041c:	4729                	li	a4,10
    8000041e:	00e78c23          	sb	a4,24(a5)
        cons.w = cons.e;
    80000422:	00012797          	auipc	a5,0x12
    80000426:	dec7ad23          	sw	a2,-518(a5) # 8001221c <cons+0x9c>
        wakeup(&cons.r);
    8000042a:	00012517          	auipc	a0,0x12
    8000042e:	dee50513          	addi	a0,a0,-530 # 80012218 <cons+0x98>
    80000432:	00002097          	auipc	ra,0x2
    80000436:	f84080e7          	jalr	-124(ra) # 800023b6 <wakeup>
    8000043a:	b575                	j	800002e6 <consoleintr+0x3c>

000000008000043c <consoleinit>:

void
consoleinit(void)
{
    8000043c:	1141                	addi	sp,sp,-16
    8000043e:	e406                	sd	ra,8(sp)
    80000440:	e022                	sd	s0,0(sp)
    80000442:	0800                	addi	s0,sp,16
  initlock(&cons.lock, "cons");
    80000444:	00009597          	auipc	a1,0x9
    80000448:	bcc58593          	addi	a1,a1,-1076 # 80009010 <etext+0x10>
    8000044c:	00012517          	auipc	a0,0x12
    80000450:	d3450513          	addi	a0,a0,-716 # 80012180 <cons>
    80000454:	00000097          	auipc	ra,0x0
    80000458:	6de080e7          	jalr	1758(ra) # 80000b32 <initlock>

  uartinit();
    8000045c:	00000097          	auipc	ra,0x0
    80000460:	32a080e7          	jalr	810(ra) # 80000786 <uartinit>

  // connect read and write system calls
  // to consoleread and consolewrite.
  devsw[CONSOLE].read = consoleread;
    80000464:	0002f797          	auipc	a5,0x2f
    80000468:	8b478793          	addi	a5,a5,-1868 # 8002ed18 <devsw>
    8000046c:	00000717          	auipc	a4,0x0
    80000470:	cea70713          	addi	a4,a4,-790 # 80000156 <consoleread>
    80000474:	eb98                	sd	a4,16(a5)
  devsw[CONSOLE].write = consolewrite;
    80000476:	00000717          	auipc	a4,0x0
    8000047a:	c7e70713          	addi	a4,a4,-898 # 800000f4 <consolewrite>
    8000047e:	ef98                	sd	a4,24(a5)
}
    80000480:	60a2                	ld	ra,8(sp)
    80000482:	6402                	ld	s0,0(sp)
    80000484:	0141                	addi	sp,sp,16
    80000486:	8082                	ret

0000000080000488 <printint>:

static char digits[] = "0123456789abcdef";

static void
printint(int xx, int base, int sign)
{
    80000488:	7179                	addi	sp,sp,-48
    8000048a:	f406                	sd	ra,40(sp)
    8000048c:	f022                	sd	s0,32(sp)
    8000048e:	ec26                	sd	s1,24(sp)
    80000490:	e84a                	sd	s2,16(sp)
    80000492:	1800                	addi	s0,sp,48
  char buf[16];
  int i;
  uint x;

  if(sign && (sign = xx < 0))
    80000494:	c219                	beqz	a2,8000049a <printint+0x12>
    80000496:	08054663          	bltz	a0,80000522 <printint+0x9a>
    x = -xx;
  else
    x = xx;
    8000049a:	2501                	sext.w	a0,a0
    8000049c:	4881                	li	a7,0
    8000049e:	fd040693          	addi	a3,s0,-48

  i = 0;
    800004a2:	4701                	li	a4,0
  do {
    buf[i++] = digits[x % base];
    800004a4:	2581                	sext.w	a1,a1
    800004a6:	00009617          	auipc	a2,0x9
    800004aa:	b9a60613          	addi	a2,a2,-1126 # 80009040 <digits>
    800004ae:	883a                	mv	a6,a4
    800004b0:	2705                	addiw	a4,a4,1
    800004b2:	02b577bb          	remuw	a5,a0,a1
    800004b6:	1782                	slli	a5,a5,0x20
    800004b8:	9381                	srli	a5,a5,0x20
    800004ba:	97b2                	add	a5,a5,a2
    800004bc:	0007c783          	lbu	a5,0(a5)
    800004c0:	00f68023          	sb	a5,0(a3)
  } while((x /= base) != 0);
    800004c4:	0005079b          	sext.w	a5,a0
    800004c8:	02b5553b          	divuw	a0,a0,a1
    800004cc:	0685                	addi	a3,a3,1
    800004ce:	feb7f0e3          	bgeu	a5,a1,800004ae <printint+0x26>

  if(sign)
    800004d2:	00088b63          	beqz	a7,800004e8 <printint+0x60>
    buf[i++] = '-';
    800004d6:	fe040793          	addi	a5,s0,-32
    800004da:	973e                	add	a4,a4,a5
    800004dc:	02d00793          	li	a5,45
    800004e0:	fef70823          	sb	a5,-16(a4)
    800004e4:	0028071b          	addiw	a4,a6,2

  while(--i >= 0)
    800004e8:	02e05763          	blez	a4,80000516 <printint+0x8e>
    800004ec:	fd040793          	addi	a5,s0,-48
    800004f0:	00e784b3          	add	s1,a5,a4
    800004f4:	fff78913          	addi	s2,a5,-1
    800004f8:	993a                	add	s2,s2,a4
    800004fa:	377d                	addiw	a4,a4,-1
    800004fc:	1702                	slli	a4,a4,0x20
    800004fe:	9301                	srli	a4,a4,0x20
    80000500:	40e90933          	sub	s2,s2,a4
    consputc(buf[i]);
    80000504:	fff4c503          	lbu	a0,-1(s1)
    80000508:	00000097          	auipc	ra,0x0
    8000050c:	d60080e7          	jalr	-672(ra) # 80000268 <consputc>
  while(--i >= 0)
    80000510:	14fd                	addi	s1,s1,-1
    80000512:	ff2499e3          	bne	s1,s2,80000504 <printint+0x7c>
}
    80000516:	70a2                	ld	ra,40(sp)
    80000518:	7402                	ld	s0,32(sp)
    8000051a:	64e2                	ld	s1,24(sp)
    8000051c:	6942                	ld	s2,16(sp)
    8000051e:	6145                	addi	sp,sp,48
    80000520:	8082                	ret
    x = -xx;
    80000522:	40a0053b          	negw	a0,a0
  if(sign && (sign = xx < 0))
    80000526:	4885                	li	a7,1
    x = -xx;
    80000528:	bf9d                	j	8000049e <printint+0x16>

000000008000052a <panic>:
    release(&pr.lock);
}

void
panic(char *s)
{
    8000052a:	1101                	addi	sp,sp,-32
    8000052c:	ec06                	sd	ra,24(sp)
    8000052e:	e822                	sd	s0,16(sp)
    80000530:	e426                	sd	s1,8(sp)
    80000532:	1000                	addi	s0,sp,32
    80000534:	84aa                	mv	s1,a0
  pr.locking = 0;
    80000536:	00012797          	auipc	a5,0x12
    8000053a:	d007a523          	sw	zero,-758(a5) # 80012240 <pr+0x18>
  printf("panic: ");
    8000053e:	00009517          	auipc	a0,0x9
    80000542:	ada50513          	addi	a0,a0,-1318 # 80009018 <etext+0x18>
    80000546:	00000097          	auipc	ra,0x0
    8000054a:	02e080e7          	jalr	46(ra) # 80000574 <printf>
  printf(s);
    8000054e:	8526                	mv	a0,s1
    80000550:	00000097          	auipc	ra,0x0
    80000554:	024080e7          	jalr	36(ra) # 80000574 <printf>
  printf("\n");
    80000558:	00009517          	auipc	a0,0x9
    8000055c:	14050513          	addi	a0,a0,320 # 80009698 <digits+0x658>
    80000560:	00000097          	auipc	ra,0x0
    80000564:	014080e7          	jalr	20(ra) # 80000574 <printf>
  panicked = 1; // freeze uart output from other CPUs
    80000568:	4785                	li	a5,1
    8000056a:	0000a717          	auipc	a4,0xa
    8000056e:	a8f72b23          	sw	a5,-1386(a4) # 8000a000 <panicked>
  for(;;)
    80000572:	a001                	j	80000572 <panic+0x48>

0000000080000574 <printf>:
{
    80000574:	7131                	addi	sp,sp,-192
    80000576:	fc86                	sd	ra,120(sp)
    80000578:	f8a2                	sd	s0,112(sp)
    8000057a:	f4a6                	sd	s1,104(sp)
    8000057c:	f0ca                	sd	s2,96(sp)
    8000057e:	ecce                	sd	s3,88(sp)
    80000580:	e8d2                	sd	s4,80(sp)
    80000582:	e4d6                	sd	s5,72(sp)
    80000584:	e0da                	sd	s6,64(sp)
    80000586:	fc5e                	sd	s7,56(sp)
    80000588:	f862                	sd	s8,48(sp)
    8000058a:	f466                	sd	s9,40(sp)
    8000058c:	f06a                	sd	s10,32(sp)
    8000058e:	ec6e                	sd	s11,24(sp)
    80000590:	0100                	addi	s0,sp,128
    80000592:	8a2a                	mv	s4,a0
    80000594:	e40c                	sd	a1,8(s0)
    80000596:	e810                	sd	a2,16(s0)
    80000598:	ec14                	sd	a3,24(s0)
    8000059a:	f018                	sd	a4,32(s0)
    8000059c:	f41c                	sd	a5,40(s0)
    8000059e:	03043823          	sd	a6,48(s0)
    800005a2:	03143c23          	sd	a7,56(s0)
  locking = pr.locking;
    800005a6:	00012d97          	auipc	s11,0x12
    800005aa:	c9adad83          	lw	s11,-870(s11) # 80012240 <pr+0x18>
  if(locking)
    800005ae:	020d9b63          	bnez	s11,800005e4 <printf+0x70>
  if (fmt == 0)
    800005b2:	040a0263          	beqz	s4,800005f6 <printf+0x82>
  va_start(ap, fmt);
    800005b6:	00840793          	addi	a5,s0,8
    800005ba:	f8f43423          	sd	a5,-120(s0)
  for(i = 0; (c = fmt[i] & 0xff) != 0; i++){
    800005be:	000a4503          	lbu	a0,0(s4)
    800005c2:	14050f63          	beqz	a0,80000720 <printf+0x1ac>
    800005c6:	4981                	li	s3,0
    if(c != '%'){
    800005c8:	02500a93          	li	s5,37
    switch(c){
    800005cc:	07000b93          	li	s7,112
  consputc('x');
    800005d0:	4d41                	li	s10,16
    consputc(digits[x >> (sizeof(uint64) * 8 - 4)]);
    800005d2:	00009b17          	auipc	s6,0x9
    800005d6:	a6eb0b13          	addi	s6,s6,-1426 # 80009040 <digits>
    switch(c){
    800005da:	07300c93          	li	s9,115
    800005de:	06400c13          	li	s8,100
    800005e2:	a82d                	j	8000061c <printf+0xa8>
    acquire(&pr.lock);
    800005e4:	00012517          	auipc	a0,0x12
    800005e8:	c4450513          	addi	a0,a0,-956 # 80012228 <pr>
    800005ec:	00000097          	auipc	ra,0x0
    800005f0:	5d6080e7          	jalr	1494(ra) # 80000bc2 <acquire>
    800005f4:	bf7d                	j	800005b2 <printf+0x3e>
    panic("null fmt");
    800005f6:	00009517          	auipc	a0,0x9
    800005fa:	a3250513          	addi	a0,a0,-1486 # 80009028 <etext+0x28>
    800005fe:	00000097          	auipc	ra,0x0
    80000602:	f2c080e7          	jalr	-212(ra) # 8000052a <panic>
      consputc(c);
    80000606:	00000097          	auipc	ra,0x0
    8000060a:	c62080e7          	jalr	-926(ra) # 80000268 <consputc>
  for(i = 0; (c = fmt[i] & 0xff) != 0; i++){
    8000060e:	2985                	addiw	s3,s3,1
    80000610:	013a07b3          	add	a5,s4,s3
    80000614:	0007c503          	lbu	a0,0(a5)
    80000618:	10050463          	beqz	a0,80000720 <printf+0x1ac>
    if(c != '%'){
    8000061c:	ff5515e3          	bne	a0,s5,80000606 <printf+0x92>
    c = fmt[++i] & 0xff;
    80000620:	2985                	addiw	s3,s3,1
    80000622:	013a07b3          	add	a5,s4,s3
    80000626:	0007c783          	lbu	a5,0(a5)
    8000062a:	0007849b          	sext.w	s1,a5
    if(c == 0)
    8000062e:	cbed                	beqz	a5,80000720 <printf+0x1ac>
    switch(c){
    80000630:	05778a63          	beq	a5,s7,80000684 <printf+0x110>
    80000634:	02fbf663          	bgeu	s7,a5,80000660 <printf+0xec>
    80000638:	09978863          	beq	a5,s9,800006c8 <printf+0x154>
    8000063c:	07800713          	li	a4,120
    80000640:	0ce79563          	bne	a5,a4,8000070a <printf+0x196>
      printint(va_arg(ap, int), 16, 1);
    80000644:	f8843783          	ld	a5,-120(s0)
    80000648:	00878713          	addi	a4,a5,8
    8000064c:	f8e43423          	sd	a4,-120(s0)
    80000650:	4605                	li	a2,1
    80000652:	85ea                	mv	a1,s10
    80000654:	4388                	lw	a0,0(a5)
    80000656:	00000097          	auipc	ra,0x0
    8000065a:	e32080e7          	jalr	-462(ra) # 80000488 <printint>
      break;
    8000065e:	bf45                	j	8000060e <printf+0x9a>
    switch(c){
    80000660:	09578f63          	beq	a5,s5,800006fe <printf+0x18a>
    80000664:	0b879363          	bne	a5,s8,8000070a <printf+0x196>
      printint(va_arg(ap, int), 10, 1);
    80000668:	f8843783          	ld	a5,-120(s0)
    8000066c:	00878713          	addi	a4,a5,8
    80000670:	f8e43423          	sd	a4,-120(s0)
    80000674:	4605                	li	a2,1
    80000676:	45a9                	li	a1,10
    80000678:	4388                	lw	a0,0(a5)
    8000067a:	00000097          	auipc	ra,0x0
    8000067e:	e0e080e7          	jalr	-498(ra) # 80000488 <printint>
      break;
    80000682:	b771                	j	8000060e <printf+0x9a>
      printptr(va_arg(ap, uint64));
    80000684:	f8843783          	ld	a5,-120(s0)
    80000688:	00878713          	addi	a4,a5,8
    8000068c:	f8e43423          	sd	a4,-120(s0)
    80000690:	0007b903          	ld	s2,0(a5)
  consputc('0');
    80000694:	03000513          	li	a0,48
    80000698:	00000097          	auipc	ra,0x0
    8000069c:	bd0080e7          	jalr	-1072(ra) # 80000268 <consputc>
  consputc('x');
    800006a0:	07800513          	li	a0,120
    800006a4:	00000097          	auipc	ra,0x0
    800006a8:	bc4080e7          	jalr	-1084(ra) # 80000268 <consputc>
    800006ac:	84ea                	mv	s1,s10
    consputc(digits[x >> (sizeof(uint64) * 8 - 4)]);
    800006ae:	03c95793          	srli	a5,s2,0x3c
    800006b2:	97da                	add	a5,a5,s6
    800006b4:	0007c503          	lbu	a0,0(a5)
    800006b8:	00000097          	auipc	ra,0x0
    800006bc:	bb0080e7          	jalr	-1104(ra) # 80000268 <consputc>
  for (i = 0; i < (sizeof(uint64) * 2); i++, x <<= 4)
    800006c0:	0912                	slli	s2,s2,0x4
    800006c2:	34fd                	addiw	s1,s1,-1
    800006c4:	f4ed                	bnez	s1,800006ae <printf+0x13a>
    800006c6:	b7a1                	j	8000060e <printf+0x9a>
      if((s = va_arg(ap, char*)) == 0)
    800006c8:	f8843783          	ld	a5,-120(s0)
    800006cc:	00878713          	addi	a4,a5,8
    800006d0:	f8e43423          	sd	a4,-120(s0)
    800006d4:	6384                	ld	s1,0(a5)
    800006d6:	cc89                	beqz	s1,800006f0 <printf+0x17c>
      for(; *s; s++)
    800006d8:	0004c503          	lbu	a0,0(s1)
    800006dc:	d90d                	beqz	a0,8000060e <printf+0x9a>
        consputc(*s);
    800006de:	00000097          	auipc	ra,0x0
    800006e2:	b8a080e7          	jalr	-1142(ra) # 80000268 <consputc>
      for(; *s; s++)
    800006e6:	0485                	addi	s1,s1,1
    800006e8:	0004c503          	lbu	a0,0(s1)
    800006ec:	f96d                	bnez	a0,800006de <printf+0x16a>
    800006ee:	b705                	j	8000060e <printf+0x9a>
        s = "(null)";
    800006f0:	00009497          	auipc	s1,0x9
    800006f4:	93048493          	addi	s1,s1,-1744 # 80009020 <etext+0x20>
      for(; *s; s++)
    800006f8:	02800513          	li	a0,40
    800006fc:	b7cd                	j	800006de <printf+0x16a>
      consputc('%');
    800006fe:	8556                	mv	a0,s5
    80000700:	00000097          	auipc	ra,0x0
    80000704:	b68080e7          	jalr	-1176(ra) # 80000268 <consputc>
      break;
    80000708:	b719                	j	8000060e <printf+0x9a>
      consputc('%');
    8000070a:	8556                	mv	a0,s5
    8000070c:	00000097          	auipc	ra,0x0
    80000710:	b5c080e7          	jalr	-1188(ra) # 80000268 <consputc>
      consputc(c);
    80000714:	8526                	mv	a0,s1
    80000716:	00000097          	auipc	ra,0x0
    8000071a:	b52080e7          	jalr	-1198(ra) # 80000268 <consputc>
      break;
    8000071e:	bdc5                	j	8000060e <printf+0x9a>
  if(locking)
    80000720:	020d9163          	bnez	s11,80000742 <printf+0x1ce>
}
    80000724:	70e6                	ld	ra,120(sp)
    80000726:	7446                	ld	s0,112(sp)
    80000728:	74a6                	ld	s1,104(sp)
    8000072a:	7906                	ld	s2,96(sp)
    8000072c:	69e6                	ld	s3,88(sp)
    8000072e:	6a46                	ld	s4,80(sp)
    80000730:	6aa6                	ld	s5,72(sp)
    80000732:	6b06                	ld	s6,64(sp)
    80000734:	7be2                	ld	s7,56(sp)
    80000736:	7c42                	ld	s8,48(sp)
    80000738:	7ca2                	ld	s9,40(sp)
    8000073a:	7d02                	ld	s10,32(sp)
    8000073c:	6de2                	ld	s11,24(sp)
    8000073e:	6129                	addi	sp,sp,192
    80000740:	8082                	ret
    release(&pr.lock);
    80000742:	00012517          	auipc	a0,0x12
    80000746:	ae650513          	addi	a0,a0,-1306 # 80012228 <pr>
    8000074a:	00000097          	auipc	ra,0x0
    8000074e:	52c080e7          	jalr	1324(ra) # 80000c76 <release>
}
    80000752:	bfc9                	j	80000724 <printf+0x1b0>

0000000080000754 <printfinit>:
    ;
}

void
printfinit(void)
{
    80000754:	1101                	addi	sp,sp,-32
    80000756:	ec06                	sd	ra,24(sp)
    80000758:	e822                	sd	s0,16(sp)
    8000075a:	e426                	sd	s1,8(sp)
    8000075c:	1000                	addi	s0,sp,32
  initlock(&pr.lock, "pr");
    8000075e:	00012497          	auipc	s1,0x12
    80000762:	aca48493          	addi	s1,s1,-1334 # 80012228 <pr>
    80000766:	00009597          	auipc	a1,0x9
    8000076a:	8d258593          	addi	a1,a1,-1838 # 80009038 <etext+0x38>
    8000076e:	8526                	mv	a0,s1
    80000770:	00000097          	auipc	ra,0x0
    80000774:	3c2080e7          	jalr	962(ra) # 80000b32 <initlock>
  pr.locking = 1;
    80000778:	4785                	li	a5,1
    8000077a:	cc9c                	sw	a5,24(s1)
}
    8000077c:	60e2                	ld	ra,24(sp)
    8000077e:	6442                	ld	s0,16(sp)
    80000780:	64a2                	ld	s1,8(sp)
    80000782:	6105                	addi	sp,sp,32
    80000784:	8082                	ret

0000000080000786 <uartinit>:

void uartstart();

void
uartinit(void)
{
    80000786:	1141                	addi	sp,sp,-16
    80000788:	e406                	sd	ra,8(sp)
    8000078a:	e022                	sd	s0,0(sp)
    8000078c:	0800                	addi	s0,sp,16
  // disable interrupts.
  WriteReg(IER, 0x00);
    8000078e:	100007b7          	lui	a5,0x10000
    80000792:	000780a3          	sb	zero,1(a5) # 10000001 <_entry-0x6fffffff>

  // special mode to set baud rate.
  WriteReg(LCR, LCR_BAUD_LATCH);
    80000796:	f8000713          	li	a4,-128
    8000079a:	00e781a3          	sb	a4,3(a5)

  // LSB for baud rate of 38.4K.
  WriteReg(0, 0x03);
    8000079e:	470d                	li	a4,3
    800007a0:	00e78023          	sb	a4,0(a5)

  // MSB for baud rate of 38.4K.
  WriteReg(1, 0x00);
    800007a4:	000780a3          	sb	zero,1(a5)

  // leave set-baud mode,
  // and set word length to 8 bits, no parity.
  WriteReg(LCR, LCR_EIGHT_BITS);
    800007a8:	00e781a3          	sb	a4,3(a5)

  // reset and enable FIFOs.
  WriteReg(FCR, FCR_FIFO_ENABLE | FCR_FIFO_CLEAR);
    800007ac:	469d                	li	a3,7
    800007ae:	00d78123          	sb	a3,2(a5)

  // enable transmit and receive interrupts.
  WriteReg(IER, IER_TX_ENABLE | IER_RX_ENABLE);
    800007b2:	00e780a3          	sb	a4,1(a5)

  initlock(&uart_tx_lock, "uart");
    800007b6:	00009597          	auipc	a1,0x9
    800007ba:	8a258593          	addi	a1,a1,-1886 # 80009058 <digits+0x18>
    800007be:	00012517          	auipc	a0,0x12
    800007c2:	a8a50513          	addi	a0,a0,-1398 # 80012248 <uart_tx_lock>
    800007c6:	00000097          	auipc	ra,0x0
    800007ca:	36c080e7          	jalr	876(ra) # 80000b32 <initlock>
}
    800007ce:	60a2                	ld	ra,8(sp)
    800007d0:	6402                	ld	s0,0(sp)
    800007d2:	0141                	addi	sp,sp,16
    800007d4:	8082                	ret

00000000800007d6 <uartputc_sync>:
// use interrupts, for use by kernel printf() and
// to echo characters. it spins waiting for the uart's
// output register to be empty.
void
uartputc_sync(int c)
{
    800007d6:	1101                	addi	sp,sp,-32
    800007d8:	ec06                	sd	ra,24(sp)
    800007da:	e822                	sd	s0,16(sp)
    800007dc:	e426                	sd	s1,8(sp)
    800007de:	1000                	addi	s0,sp,32
    800007e0:	84aa                	mv	s1,a0
  push_off();
    800007e2:	00000097          	auipc	ra,0x0
    800007e6:	394080e7          	jalr	916(ra) # 80000b76 <push_off>

  if(panicked){
    800007ea:	0000a797          	auipc	a5,0xa
    800007ee:	8167a783          	lw	a5,-2026(a5) # 8000a000 <panicked>
    for(;;)
      ;
  }

  // wait for Transmit Holding Empty to be set in LSR.
  while((ReadReg(LSR) & LSR_TX_IDLE) == 0)
    800007f2:	10000737          	lui	a4,0x10000
  if(panicked){
    800007f6:	c391                	beqz	a5,800007fa <uartputc_sync+0x24>
    for(;;)
    800007f8:	a001                	j	800007f8 <uartputc_sync+0x22>
  while((ReadReg(LSR) & LSR_TX_IDLE) == 0)
    800007fa:	00574783          	lbu	a5,5(a4) # 10000005 <_entry-0x6ffffffb>
    800007fe:	0207f793          	andi	a5,a5,32
    80000802:	dfe5                	beqz	a5,800007fa <uartputc_sync+0x24>
    ;
  WriteReg(THR, c);
    80000804:	0ff4f513          	andi	a0,s1,255
    80000808:	100007b7          	lui	a5,0x10000
    8000080c:	00a78023          	sb	a0,0(a5) # 10000000 <_entry-0x70000000>

  pop_off();
    80000810:	00000097          	auipc	ra,0x0
    80000814:	406080e7          	jalr	1030(ra) # 80000c16 <pop_off>
}
    80000818:	60e2                	ld	ra,24(sp)
    8000081a:	6442                	ld	s0,16(sp)
    8000081c:	64a2                	ld	s1,8(sp)
    8000081e:	6105                	addi	sp,sp,32
    80000820:	8082                	ret

0000000080000822 <uartstart>:
// called from both the top- and bottom-half.
void
uartstart()
{
  while(1){
    if(uart_tx_w == uart_tx_r){
    80000822:	00009797          	auipc	a5,0x9
    80000826:	7e67b783          	ld	a5,2022(a5) # 8000a008 <uart_tx_r>
    8000082a:	00009717          	auipc	a4,0x9
    8000082e:	7e673703          	ld	a4,2022(a4) # 8000a010 <uart_tx_w>
    80000832:	06f70a63          	beq	a4,a5,800008a6 <uartstart+0x84>
{
    80000836:	7139                	addi	sp,sp,-64
    80000838:	fc06                	sd	ra,56(sp)
    8000083a:	f822                	sd	s0,48(sp)
    8000083c:	f426                	sd	s1,40(sp)
    8000083e:	f04a                	sd	s2,32(sp)
    80000840:	ec4e                	sd	s3,24(sp)
    80000842:	e852                	sd	s4,16(sp)
    80000844:	e456                	sd	s5,8(sp)
    80000846:	0080                	addi	s0,sp,64
      // transmit buffer is empty.
      return;
    }
    
    if((ReadReg(LSR) & LSR_TX_IDLE) == 0){
    80000848:	10000937          	lui	s2,0x10000
      // so we cannot give it another byte.
      // it will interrupt when it's ready for a new byte.
      return;
    }
    
    int c = uart_tx_buf[uart_tx_r % UART_TX_BUF_SIZE];
    8000084c:	00012a17          	auipc	s4,0x12
    80000850:	9fca0a13          	addi	s4,s4,-1540 # 80012248 <uart_tx_lock>
    uart_tx_r += 1;
    80000854:	00009497          	auipc	s1,0x9
    80000858:	7b448493          	addi	s1,s1,1972 # 8000a008 <uart_tx_r>
    if(uart_tx_w == uart_tx_r){
    8000085c:	00009997          	auipc	s3,0x9
    80000860:	7b498993          	addi	s3,s3,1972 # 8000a010 <uart_tx_w>
    if((ReadReg(LSR) & LSR_TX_IDLE) == 0){
    80000864:	00594703          	lbu	a4,5(s2) # 10000005 <_entry-0x6ffffffb>
    80000868:	02077713          	andi	a4,a4,32
    8000086c:	c705                	beqz	a4,80000894 <uartstart+0x72>
    int c = uart_tx_buf[uart_tx_r % UART_TX_BUF_SIZE];
    8000086e:	01f7f713          	andi	a4,a5,31
    80000872:	9752                	add	a4,a4,s4
    80000874:	01874a83          	lbu	s5,24(a4)
    uart_tx_r += 1;
    80000878:	0785                	addi	a5,a5,1
    8000087a:	e09c                	sd	a5,0(s1)
    
    // maybe uartputc() is waiting for space in the buffer.
    wakeup(&uart_tx_r);
    8000087c:	8526                	mv	a0,s1
    8000087e:	00002097          	auipc	ra,0x2
    80000882:	b38080e7          	jalr	-1224(ra) # 800023b6 <wakeup>
    
    WriteReg(THR, c);
    80000886:	01590023          	sb	s5,0(s2)
    if(uart_tx_w == uart_tx_r){
    8000088a:	609c                	ld	a5,0(s1)
    8000088c:	0009b703          	ld	a4,0(s3)
    80000890:	fcf71ae3          	bne	a4,a5,80000864 <uartstart+0x42>
  }
}
    80000894:	70e2                	ld	ra,56(sp)
    80000896:	7442                	ld	s0,48(sp)
    80000898:	74a2                	ld	s1,40(sp)
    8000089a:	7902                	ld	s2,32(sp)
    8000089c:	69e2                	ld	s3,24(sp)
    8000089e:	6a42                	ld	s4,16(sp)
    800008a0:	6aa2                	ld	s5,8(sp)
    800008a2:	6121                	addi	sp,sp,64
    800008a4:	8082                	ret
    800008a6:	8082                	ret

00000000800008a8 <uartputc>:
{
    800008a8:	7179                	addi	sp,sp,-48
    800008aa:	f406                	sd	ra,40(sp)
    800008ac:	f022                	sd	s0,32(sp)
    800008ae:	ec26                	sd	s1,24(sp)
    800008b0:	e84a                	sd	s2,16(sp)
    800008b2:	e44e                	sd	s3,8(sp)
    800008b4:	e052                	sd	s4,0(sp)
    800008b6:	1800                	addi	s0,sp,48
    800008b8:	8a2a                	mv	s4,a0
  acquire(&uart_tx_lock);
    800008ba:	00012517          	auipc	a0,0x12
    800008be:	98e50513          	addi	a0,a0,-1650 # 80012248 <uart_tx_lock>
    800008c2:	00000097          	auipc	ra,0x0
    800008c6:	300080e7          	jalr	768(ra) # 80000bc2 <acquire>
  if(panicked){
    800008ca:	00009797          	auipc	a5,0x9
    800008ce:	7367a783          	lw	a5,1846(a5) # 8000a000 <panicked>
    800008d2:	c391                	beqz	a5,800008d6 <uartputc+0x2e>
    for(;;)
    800008d4:	a001                	j	800008d4 <uartputc+0x2c>
    if(uart_tx_w == uart_tx_r + UART_TX_BUF_SIZE){
    800008d6:	00009717          	auipc	a4,0x9
    800008da:	73a73703          	ld	a4,1850(a4) # 8000a010 <uart_tx_w>
    800008de:	00009797          	auipc	a5,0x9
    800008e2:	72a7b783          	ld	a5,1834(a5) # 8000a008 <uart_tx_r>
    800008e6:	02078793          	addi	a5,a5,32
    800008ea:	02e79b63          	bne	a5,a4,80000920 <uartputc+0x78>
      sleep(&uart_tx_r, &uart_tx_lock);
    800008ee:	00012997          	auipc	s3,0x12
    800008f2:	95a98993          	addi	s3,s3,-1702 # 80012248 <uart_tx_lock>
    800008f6:	00009497          	auipc	s1,0x9
    800008fa:	71248493          	addi	s1,s1,1810 # 8000a008 <uart_tx_r>
    if(uart_tx_w == uart_tx_r + UART_TX_BUF_SIZE){
    800008fe:	00009917          	auipc	s2,0x9
    80000902:	71290913          	addi	s2,s2,1810 # 8000a010 <uart_tx_w>
      sleep(&uart_tx_r, &uart_tx_lock);
    80000906:	85ce                	mv	a1,s3
    80000908:	8526                	mv	a0,s1
    8000090a:	00002097          	auipc	ra,0x2
    8000090e:	920080e7          	jalr	-1760(ra) # 8000222a <sleep>
    if(uart_tx_w == uart_tx_r + UART_TX_BUF_SIZE){
    80000912:	00093703          	ld	a4,0(s2)
    80000916:	609c                	ld	a5,0(s1)
    80000918:	02078793          	addi	a5,a5,32
    8000091c:	fee785e3          	beq	a5,a4,80000906 <uartputc+0x5e>
      uart_tx_buf[uart_tx_w % UART_TX_BUF_SIZE] = c;
    80000920:	00012497          	auipc	s1,0x12
    80000924:	92848493          	addi	s1,s1,-1752 # 80012248 <uart_tx_lock>
    80000928:	01f77793          	andi	a5,a4,31
    8000092c:	97a6                	add	a5,a5,s1
    8000092e:	01478c23          	sb	s4,24(a5)
      uart_tx_w += 1;
    80000932:	0705                	addi	a4,a4,1
    80000934:	00009797          	auipc	a5,0x9
    80000938:	6ce7be23          	sd	a4,1756(a5) # 8000a010 <uart_tx_w>
      uartstart();
    8000093c:	00000097          	auipc	ra,0x0
    80000940:	ee6080e7          	jalr	-282(ra) # 80000822 <uartstart>
      release(&uart_tx_lock);
    80000944:	8526                	mv	a0,s1
    80000946:	00000097          	auipc	ra,0x0
    8000094a:	330080e7          	jalr	816(ra) # 80000c76 <release>
}
    8000094e:	70a2                	ld	ra,40(sp)
    80000950:	7402                	ld	s0,32(sp)
    80000952:	64e2                	ld	s1,24(sp)
    80000954:	6942                	ld	s2,16(sp)
    80000956:	69a2                	ld	s3,8(sp)
    80000958:	6a02                	ld	s4,0(sp)
    8000095a:	6145                	addi	sp,sp,48
    8000095c:	8082                	ret

000000008000095e <uartgetc>:

// read one input character from the UART.
// return -1 if none is waiting.
int
uartgetc(void)
{
    8000095e:	1141                	addi	sp,sp,-16
    80000960:	e422                	sd	s0,8(sp)
    80000962:	0800                	addi	s0,sp,16
  if(ReadReg(LSR) & 0x01){
    80000964:	100007b7          	lui	a5,0x10000
    80000968:	0057c783          	lbu	a5,5(a5) # 10000005 <_entry-0x6ffffffb>
    8000096c:	8b85                	andi	a5,a5,1
    8000096e:	cb91                	beqz	a5,80000982 <uartgetc+0x24>
    // input data is ready.
    return ReadReg(RHR);
    80000970:	100007b7          	lui	a5,0x10000
    80000974:	0007c503          	lbu	a0,0(a5) # 10000000 <_entry-0x70000000>
    80000978:	0ff57513          	andi	a0,a0,255
  } else {
    return -1;
  }
}
    8000097c:	6422                	ld	s0,8(sp)
    8000097e:	0141                	addi	sp,sp,16
    80000980:	8082                	ret
    return -1;
    80000982:	557d                	li	a0,-1
    80000984:	bfe5                	j	8000097c <uartgetc+0x1e>

0000000080000986 <uartintr>:
// handle a uart interrupt, raised because input has
// arrived, or the uart is ready for more output, or
// both. called from trap.c.
void
uartintr(void)
{
    80000986:	1101                	addi	sp,sp,-32
    80000988:	ec06                	sd	ra,24(sp)
    8000098a:	e822                	sd	s0,16(sp)
    8000098c:	e426                	sd	s1,8(sp)
    8000098e:	1000                	addi	s0,sp,32
  // read and process incoming characters.
  while(1){
    int c = uartgetc();
    if(c == -1)
    80000990:	54fd                	li	s1,-1
    80000992:	a029                	j	8000099c <uartintr+0x16>
      break;
    consoleintr(c);
    80000994:	00000097          	auipc	ra,0x0
    80000998:	916080e7          	jalr	-1770(ra) # 800002aa <consoleintr>
    int c = uartgetc();
    8000099c:	00000097          	auipc	ra,0x0
    800009a0:	fc2080e7          	jalr	-62(ra) # 8000095e <uartgetc>
    if(c == -1)
    800009a4:	fe9518e3          	bne	a0,s1,80000994 <uartintr+0xe>
  }

  // send buffered characters.
  acquire(&uart_tx_lock);
    800009a8:	00012497          	auipc	s1,0x12
    800009ac:	8a048493          	addi	s1,s1,-1888 # 80012248 <uart_tx_lock>
    800009b0:	8526                	mv	a0,s1
    800009b2:	00000097          	auipc	ra,0x0
    800009b6:	210080e7          	jalr	528(ra) # 80000bc2 <acquire>
  uartstart();
    800009ba:	00000097          	auipc	ra,0x0
    800009be:	e68080e7          	jalr	-408(ra) # 80000822 <uartstart>
  release(&uart_tx_lock);
    800009c2:	8526                	mv	a0,s1
    800009c4:	00000097          	auipc	ra,0x0
    800009c8:	2b2080e7          	jalr	690(ra) # 80000c76 <release>
}
    800009cc:	60e2                	ld	ra,24(sp)
    800009ce:	6442                	ld	s0,16(sp)
    800009d0:	64a2                	ld	s1,8(sp)
    800009d2:	6105                	addi	sp,sp,32
    800009d4:	8082                	ret

00000000800009d6 <kfree>:
// which normally should have been returned by a
// call to kalloc().  (The exception is when
// initializing the allocator; see kinit above.)
void
kfree(void *pa)
{
    800009d6:	1101                	addi	sp,sp,-32
    800009d8:	ec06                	sd	ra,24(sp)
    800009da:	e822                	sd	s0,16(sp)
    800009dc:	e426                	sd	s1,8(sp)
    800009de:	e04a                	sd	s2,0(sp)
    800009e0:	1000                	addi	s0,sp,32
  struct run *r;

  if(((uint64)pa % PGSIZE) != 0 || (char*)pa < end || (uint64)pa >= PHYSTOP)
    800009e2:	03451793          	slli	a5,a0,0x34
    800009e6:	ebb9                	bnez	a5,80000a3c <kfree+0x66>
    800009e8:	84aa                	mv	s1,a0
    800009ea:	00032797          	auipc	a5,0x32
    800009ee:	61678793          	addi	a5,a5,1558 # 80033000 <end>
    800009f2:	04f56563          	bltu	a0,a5,80000a3c <kfree+0x66>
    800009f6:	47c5                	li	a5,17
    800009f8:	07ee                	slli	a5,a5,0x1b
    800009fa:	04f57163          	bgeu	a0,a5,80000a3c <kfree+0x66>
    panic("kfree");

  // Fill with junk to catch dangling refs.
  memset(pa, 1, PGSIZE);
    800009fe:	6605                	lui	a2,0x1
    80000a00:	4585                	li	a1,1
    80000a02:	00000097          	auipc	ra,0x0
    80000a06:	2bc080e7          	jalr	700(ra) # 80000cbe <memset>

  r = (struct run*)pa;

  acquire(&kmem.lock);
    80000a0a:	00012917          	auipc	s2,0x12
    80000a0e:	87690913          	addi	s2,s2,-1930 # 80012280 <kmem>
    80000a12:	854a                	mv	a0,s2
    80000a14:	00000097          	auipc	ra,0x0
    80000a18:	1ae080e7          	jalr	430(ra) # 80000bc2 <acquire>
  r->next = kmem.freelist;
    80000a1c:	01893783          	ld	a5,24(s2)
    80000a20:	e09c                	sd	a5,0(s1)
  kmem.freelist = r;
    80000a22:	00993c23          	sd	s1,24(s2)
  release(&kmem.lock);
    80000a26:	854a                	mv	a0,s2
    80000a28:	00000097          	auipc	ra,0x0
    80000a2c:	24e080e7          	jalr	590(ra) # 80000c76 <release>
}
    80000a30:	60e2                	ld	ra,24(sp)
    80000a32:	6442                	ld	s0,16(sp)
    80000a34:	64a2                	ld	s1,8(sp)
    80000a36:	6902                	ld	s2,0(sp)
    80000a38:	6105                	addi	sp,sp,32
    80000a3a:	8082                	ret
    panic("kfree");
    80000a3c:	00008517          	auipc	a0,0x8
    80000a40:	62450513          	addi	a0,a0,1572 # 80009060 <digits+0x20>
    80000a44:	00000097          	auipc	ra,0x0
    80000a48:	ae6080e7          	jalr	-1306(ra) # 8000052a <panic>

0000000080000a4c <freerange>:
{
    80000a4c:	7179                	addi	sp,sp,-48
    80000a4e:	f406                	sd	ra,40(sp)
    80000a50:	f022                	sd	s0,32(sp)
    80000a52:	ec26                	sd	s1,24(sp)
    80000a54:	e84a                	sd	s2,16(sp)
    80000a56:	e44e                	sd	s3,8(sp)
    80000a58:	e052                	sd	s4,0(sp)
    80000a5a:	1800                	addi	s0,sp,48
  p = (char*)PGROUNDUP((uint64)pa_start);
    80000a5c:	6785                	lui	a5,0x1
    80000a5e:	fff78493          	addi	s1,a5,-1 # fff <_entry-0x7ffff001>
    80000a62:	94aa                	add	s1,s1,a0
    80000a64:	757d                	lui	a0,0xfffff
    80000a66:	8ce9                	and	s1,s1,a0
  for(; p + PGSIZE <= (char*)pa_end; p += PGSIZE)
    80000a68:	94be                	add	s1,s1,a5
    80000a6a:	0095ee63          	bltu	a1,s1,80000a86 <freerange+0x3a>
    80000a6e:	892e                	mv	s2,a1
    kfree(p);
    80000a70:	7a7d                	lui	s4,0xfffff
  for(; p + PGSIZE <= (char*)pa_end; p += PGSIZE)
    80000a72:	6985                	lui	s3,0x1
    kfree(p);
    80000a74:	01448533          	add	a0,s1,s4
    80000a78:	00000097          	auipc	ra,0x0
    80000a7c:	f5e080e7          	jalr	-162(ra) # 800009d6 <kfree>
  for(; p + PGSIZE <= (char*)pa_end; p += PGSIZE)
    80000a80:	94ce                	add	s1,s1,s3
    80000a82:	fe9979e3          	bgeu	s2,s1,80000a74 <freerange+0x28>
}
    80000a86:	70a2                	ld	ra,40(sp)
    80000a88:	7402                	ld	s0,32(sp)
    80000a8a:	64e2                	ld	s1,24(sp)
    80000a8c:	6942                	ld	s2,16(sp)
    80000a8e:	69a2                	ld	s3,8(sp)
    80000a90:	6a02                	ld	s4,0(sp)
    80000a92:	6145                	addi	sp,sp,48
    80000a94:	8082                	ret

0000000080000a96 <kinit>:
{
    80000a96:	1141                	addi	sp,sp,-16
    80000a98:	e406                	sd	ra,8(sp)
    80000a9a:	e022                	sd	s0,0(sp)
    80000a9c:	0800                	addi	s0,sp,16
  initlock(&kmem.lock, "kmem");
    80000a9e:	00008597          	auipc	a1,0x8
    80000aa2:	5ca58593          	addi	a1,a1,1482 # 80009068 <digits+0x28>
    80000aa6:	00011517          	auipc	a0,0x11
    80000aaa:	7da50513          	addi	a0,a0,2010 # 80012280 <kmem>
    80000aae:	00000097          	auipc	ra,0x0
    80000ab2:	084080e7          	jalr	132(ra) # 80000b32 <initlock>
  freerange(end, (void*)PHYSTOP);
    80000ab6:	45c5                	li	a1,17
    80000ab8:	05ee                	slli	a1,a1,0x1b
    80000aba:	00032517          	auipc	a0,0x32
    80000abe:	54650513          	addi	a0,a0,1350 # 80033000 <end>
    80000ac2:	00000097          	auipc	ra,0x0
    80000ac6:	f8a080e7          	jalr	-118(ra) # 80000a4c <freerange>
}
    80000aca:	60a2                	ld	ra,8(sp)
    80000acc:	6402                	ld	s0,0(sp)
    80000ace:	0141                	addi	sp,sp,16
    80000ad0:	8082                	ret

0000000080000ad2 <kalloc>:
// Allocate one 4096-byte page of physical memory.
// Returns a pointer that the kernel can use.
// Returns 0 if the memory cannot be allocated.
void *
kalloc(void)
{
    80000ad2:	1101                	addi	sp,sp,-32
    80000ad4:	ec06                	sd	ra,24(sp)
    80000ad6:	e822                	sd	s0,16(sp)
    80000ad8:	e426                	sd	s1,8(sp)
    80000ada:	1000                	addi	s0,sp,32
  struct run *r;

  acquire(&kmem.lock);
    80000adc:	00011497          	auipc	s1,0x11
    80000ae0:	7a448493          	addi	s1,s1,1956 # 80012280 <kmem>
    80000ae4:	8526                	mv	a0,s1
    80000ae6:	00000097          	auipc	ra,0x0
    80000aea:	0dc080e7          	jalr	220(ra) # 80000bc2 <acquire>
  r = kmem.freelist;
    80000aee:	6c84                	ld	s1,24(s1)
  if(r)
    80000af0:	c885                	beqz	s1,80000b20 <kalloc+0x4e>
    kmem.freelist = r->next;
    80000af2:	609c                	ld	a5,0(s1)
    80000af4:	00011517          	auipc	a0,0x11
    80000af8:	78c50513          	addi	a0,a0,1932 # 80012280 <kmem>
    80000afc:	ed1c                	sd	a5,24(a0)
  release(&kmem.lock);
    80000afe:	00000097          	auipc	ra,0x0
    80000b02:	178080e7          	jalr	376(ra) # 80000c76 <release>

  if(r)
    memset((char*)r, 5, PGSIZE); // fill with junk
    80000b06:	6605                	lui	a2,0x1
    80000b08:	4595                	li	a1,5
    80000b0a:	8526                	mv	a0,s1
    80000b0c:	00000097          	auipc	ra,0x0
    80000b10:	1b2080e7          	jalr	434(ra) # 80000cbe <memset>
  return (void*)r;
}
    80000b14:	8526                	mv	a0,s1
    80000b16:	60e2                	ld	ra,24(sp)
    80000b18:	6442                	ld	s0,16(sp)
    80000b1a:	64a2                	ld	s1,8(sp)
    80000b1c:	6105                	addi	sp,sp,32
    80000b1e:	8082                	ret
  release(&kmem.lock);
    80000b20:	00011517          	auipc	a0,0x11
    80000b24:	76050513          	addi	a0,a0,1888 # 80012280 <kmem>
    80000b28:	00000097          	auipc	ra,0x0
    80000b2c:	14e080e7          	jalr	334(ra) # 80000c76 <release>
  if(r)
    80000b30:	b7d5                	j	80000b14 <kalloc+0x42>

0000000080000b32 <initlock>:
#include "proc.h"
#include "defs.h"

void
initlock(struct spinlock *lk, char *name)
{
    80000b32:	1141                	addi	sp,sp,-16
    80000b34:	e422                	sd	s0,8(sp)
    80000b36:	0800                	addi	s0,sp,16
  lk->name = name;
    80000b38:	e50c                	sd	a1,8(a0)
  lk->locked = 0;
    80000b3a:	00052023          	sw	zero,0(a0)
  lk->cpu = 0;
    80000b3e:	00053823          	sd	zero,16(a0)
}
    80000b42:	6422                	ld	s0,8(sp)
    80000b44:	0141                	addi	sp,sp,16
    80000b46:	8082                	ret

0000000080000b48 <holding>:
// Interrupts must be off.
int
holding(struct spinlock *lk)
{
  int r;
  r = (lk->locked && lk->cpu == mycpu());
    80000b48:	411c                	lw	a5,0(a0)
    80000b4a:	e399                	bnez	a5,80000b50 <holding+0x8>
    80000b4c:	4501                	li	a0,0
  return r;
}
    80000b4e:	8082                	ret
{
    80000b50:	1101                	addi	sp,sp,-32
    80000b52:	ec06                	sd	ra,24(sp)
    80000b54:	e822                	sd	s0,16(sp)
    80000b56:	e426                	sd	s1,8(sp)
    80000b58:	1000                	addi	s0,sp,32
  r = (lk->locked && lk->cpu == mycpu());
    80000b5a:	6904                	ld	s1,16(a0)
    80000b5c:	00001097          	auipc	ra,0x1
    80000b60:	1ba080e7          	jalr	442(ra) # 80001d16 <mycpu>
    80000b64:	40a48533          	sub	a0,s1,a0
    80000b68:	00153513          	seqz	a0,a0
}
    80000b6c:	60e2                	ld	ra,24(sp)
    80000b6e:	6442                	ld	s0,16(sp)
    80000b70:	64a2                	ld	s1,8(sp)
    80000b72:	6105                	addi	sp,sp,32
    80000b74:	8082                	ret

0000000080000b76 <push_off>:
// it takes two pop_off()s to undo two push_off()s.  Also, if interrupts
// are initially off, then push_off, pop_off leaves them off.

void
push_off(void)
{
    80000b76:	1101                	addi	sp,sp,-32
    80000b78:	ec06                	sd	ra,24(sp)
    80000b7a:	e822                	sd	s0,16(sp)
    80000b7c:	e426                	sd	s1,8(sp)
    80000b7e:	1000                	addi	s0,sp,32
  asm volatile("csrr %0, sstatus" : "=r" (x) );
    80000b80:	100024f3          	csrr	s1,sstatus
    80000b84:	100027f3          	csrr	a5,sstatus
  w_sstatus(r_sstatus() & ~SSTATUS_SIE);
    80000b88:	9bf5                	andi	a5,a5,-3
  asm volatile("csrw sstatus, %0" : : "r" (x));
    80000b8a:	10079073          	csrw	sstatus,a5
  int old = intr_get();

  intr_off();
  if(mycpu()->noff == 0)
    80000b8e:	00001097          	auipc	ra,0x1
    80000b92:	188080e7          	jalr	392(ra) # 80001d16 <mycpu>
    80000b96:	5d3c                	lw	a5,120(a0)
    80000b98:	cf89                	beqz	a5,80000bb2 <push_off+0x3c>
    mycpu()->intena = old;
  mycpu()->noff += 1;
    80000b9a:	00001097          	auipc	ra,0x1
    80000b9e:	17c080e7          	jalr	380(ra) # 80001d16 <mycpu>
    80000ba2:	5d3c                	lw	a5,120(a0)
    80000ba4:	2785                	addiw	a5,a5,1
    80000ba6:	dd3c                	sw	a5,120(a0)
}
    80000ba8:	60e2                	ld	ra,24(sp)
    80000baa:	6442                	ld	s0,16(sp)
    80000bac:	64a2                	ld	s1,8(sp)
    80000bae:	6105                	addi	sp,sp,32
    80000bb0:	8082                	ret
    mycpu()->intena = old;
    80000bb2:	00001097          	auipc	ra,0x1
    80000bb6:	164080e7          	jalr	356(ra) # 80001d16 <mycpu>
  return (x & SSTATUS_SIE) != 0;
    80000bba:	8085                	srli	s1,s1,0x1
    80000bbc:	8885                	andi	s1,s1,1
    80000bbe:	dd64                	sw	s1,124(a0)
    80000bc0:	bfe9                	j	80000b9a <push_off+0x24>

0000000080000bc2 <acquire>:
{
    80000bc2:	1101                	addi	sp,sp,-32
    80000bc4:	ec06                	sd	ra,24(sp)
    80000bc6:	e822                	sd	s0,16(sp)
    80000bc8:	e426                	sd	s1,8(sp)
    80000bca:	1000                	addi	s0,sp,32
    80000bcc:	84aa                	mv	s1,a0
  push_off(); // disable interrupts to avoid deadlock.
    80000bce:	00000097          	auipc	ra,0x0
    80000bd2:	fa8080e7          	jalr	-88(ra) # 80000b76 <push_off>
  if(holding(lk))
    80000bd6:	8526                	mv	a0,s1
    80000bd8:	00000097          	auipc	ra,0x0
    80000bdc:	f70080e7          	jalr	-144(ra) # 80000b48 <holding>
  while(__sync_lock_test_and_set(&lk->locked, 1) != 0)
    80000be0:	4705                	li	a4,1
  if(holding(lk))
    80000be2:	e115                	bnez	a0,80000c06 <acquire+0x44>
  while(__sync_lock_test_and_set(&lk->locked, 1) != 0)
    80000be4:	87ba                	mv	a5,a4
    80000be6:	0cf4a7af          	amoswap.w.aq	a5,a5,(s1)
    80000bea:	2781                	sext.w	a5,a5
    80000bec:	ffe5                	bnez	a5,80000be4 <acquire+0x22>
  __sync_synchronize();
    80000bee:	0ff0000f          	fence
  lk->cpu = mycpu();
    80000bf2:	00001097          	auipc	ra,0x1
    80000bf6:	124080e7          	jalr	292(ra) # 80001d16 <mycpu>
    80000bfa:	e888                	sd	a0,16(s1)
}
    80000bfc:	60e2                	ld	ra,24(sp)
    80000bfe:	6442                	ld	s0,16(sp)
    80000c00:	64a2                	ld	s1,8(sp)
    80000c02:	6105                	addi	sp,sp,32
    80000c04:	8082                	ret
    panic("acquire");
    80000c06:	00008517          	auipc	a0,0x8
    80000c0a:	46a50513          	addi	a0,a0,1130 # 80009070 <digits+0x30>
    80000c0e:	00000097          	auipc	ra,0x0
    80000c12:	91c080e7          	jalr	-1764(ra) # 8000052a <panic>

0000000080000c16 <pop_off>:

void
pop_off(void)
{
    80000c16:	1141                	addi	sp,sp,-16
    80000c18:	e406                	sd	ra,8(sp)
    80000c1a:	e022                	sd	s0,0(sp)
    80000c1c:	0800                	addi	s0,sp,16
  struct cpu *c = mycpu();
    80000c1e:	00001097          	auipc	ra,0x1
    80000c22:	0f8080e7          	jalr	248(ra) # 80001d16 <mycpu>
  asm volatile("csrr %0, sstatus" : "=r" (x) );
    80000c26:	100027f3          	csrr	a5,sstatus
  return (x & SSTATUS_SIE) != 0;
    80000c2a:	8b89                	andi	a5,a5,2
  if(intr_get())
    80000c2c:	e78d                	bnez	a5,80000c56 <pop_off+0x40>
    panic("pop_off - interruptible");
  if(c->noff < 1)
    80000c2e:	5d3c                	lw	a5,120(a0)
    80000c30:	02f05b63          	blez	a5,80000c66 <pop_off+0x50>
    panic("pop_off");
  c->noff -= 1;
    80000c34:	37fd                	addiw	a5,a5,-1
    80000c36:	0007871b          	sext.w	a4,a5
    80000c3a:	dd3c                	sw	a5,120(a0)
  if(c->noff == 0 && c->intena)
    80000c3c:	eb09                	bnez	a4,80000c4e <pop_off+0x38>
    80000c3e:	5d7c                	lw	a5,124(a0)
    80000c40:	c799                	beqz	a5,80000c4e <pop_off+0x38>
  asm volatile("csrr %0, sstatus" : "=r" (x) );
    80000c42:	100027f3          	csrr	a5,sstatus
  w_sstatus(r_sstatus() | SSTATUS_SIE);
    80000c46:	0027e793          	ori	a5,a5,2
  asm volatile("csrw sstatus, %0" : : "r" (x));
    80000c4a:	10079073          	csrw	sstatus,a5
    intr_on();
}
    80000c4e:	60a2                	ld	ra,8(sp)
    80000c50:	6402                	ld	s0,0(sp)
    80000c52:	0141                	addi	sp,sp,16
    80000c54:	8082                	ret
    panic("pop_off - interruptible");
    80000c56:	00008517          	auipc	a0,0x8
    80000c5a:	42250513          	addi	a0,a0,1058 # 80009078 <digits+0x38>
    80000c5e:	00000097          	auipc	ra,0x0
    80000c62:	8cc080e7          	jalr	-1844(ra) # 8000052a <panic>
    panic("pop_off");
    80000c66:	00008517          	auipc	a0,0x8
    80000c6a:	42a50513          	addi	a0,a0,1066 # 80009090 <digits+0x50>
    80000c6e:	00000097          	auipc	ra,0x0
    80000c72:	8bc080e7          	jalr	-1860(ra) # 8000052a <panic>

0000000080000c76 <release>:
{
    80000c76:	1101                	addi	sp,sp,-32
    80000c78:	ec06                	sd	ra,24(sp)
    80000c7a:	e822                	sd	s0,16(sp)
    80000c7c:	e426                	sd	s1,8(sp)
    80000c7e:	1000                	addi	s0,sp,32
    80000c80:	84aa                	mv	s1,a0
  if(!holding(lk))
    80000c82:	00000097          	auipc	ra,0x0
    80000c86:	ec6080e7          	jalr	-314(ra) # 80000b48 <holding>
    80000c8a:	c115                	beqz	a0,80000cae <release+0x38>
  lk->cpu = 0;
    80000c8c:	0004b823          	sd	zero,16(s1)
  __sync_synchronize();
    80000c90:	0ff0000f          	fence
  __sync_lock_release(&lk->locked);
    80000c94:	0f50000f          	fence	iorw,ow
    80000c98:	0804a02f          	amoswap.w	zero,zero,(s1)
  pop_off();
    80000c9c:	00000097          	auipc	ra,0x0
    80000ca0:	f7a080e7          	jalr	-134(ra) # 80000c16 <pop_off>
}
    80000ca4:	60e2                	ld	ra,24(sp)
    80000ca6:	6442                	ld	s0,16(sp)
    80000ca8:	64a2                	ld	s1,8(sp)
    80000caa:	6105                	addi	sp,sp,32
    80000cac:	8082                	ret
    panic("release");
    80000cae:	00008517          	auipc	a0,0x8
    80000cb2:	3ea50513          	addi	a0,a0,1002 # 80009098 <digits+0x58>
    80000cb6:	00000097          	auipc	ra,0x0
    80000cba:	874080e7          	jalr	-1932(ra) # 8000052a <panic>

0000000080000cbe <memset>:
#include "types.h"

void*
memset(void *dst, int c, uint n)
{
    80000cbe:	1141                	addi	sp,sp,-16
    80000cc0:	e422                	sd	s0,8(sp)
    80000cc2:	0800                	addi	s0,sp,16
  char *cdst = (char *) dst;
  int i;
  for(i = 0; i < n; i++){
    80000cc4:	ca19                	beqz	a2,80000cda <memset+0x1c>
    80000cc6:	87aa                	mv	a5,a0
    80000cc8:	1602                	slli	a2,a2,0x20
    80000cca:	9201                	srli	a2,a2,0x20
    80000ccc:	00a60733          	add	a4,a2,a0
    cdst[i] = c;
    80000cd0:	00b78023          	sb	a1,0(a5)
  for(i = 0; i < n; i++){
    80000cd4:	0785                	addi	a5,a5,1
    80000cd6:	fee79de3          	bne	a5,a4,80000cd0 <memset+0x12>
  }
  return dst;
}
    80000cda:	6422                	ld	s0,8(sp)
    80000cdc:	0141                	addi	sp,sp,16
    80000cde:	8082                	ret

0000000080000ce0 <memcmp>:

int
memcmp(const void *v1, const void *v2, uint n)
{
    80000ce0:	1141                	addi	sp,sp,-16
    80000ce2:	e422                	sd	s0,8(sp)
    80000ce4:	0800                	addi	s0,sp,16
  const uchar *s1, *s2;

  s1 = v1;
  s2 = v2;
  while(n-- > 0){
    80000ce6:	ca05                	beqz	a2,80000d16 <memcmp+0x36>
    80000ce8:	fff6069b          	addiw	a3,a2,-1
    80000cec:	1682                	slli	a3,a3,0x20
    80000cee:	9281                	srli	a3,a3,0x20
    80000cf0:	0685                	addi	a3,a3,1
    80000cf2:	96aa                	add	a3,a3,a0
    if(*s1 != *s2)
    80000cf4:	00054783          	lbu	a5,0(a0)
    80000cf8:	0005c703          	lbu	a4,0(a1)
    80000cfc:	00e79863          	bne	a5,a4,80000d0c <memcmp+0x2c>
      return *s1 - *s2;
    s1++, s2++;
    80000d00:	0505                	addi	a0,a0,1
    80000d02:	0585                	addi	a1,a1,1
  while(n-- > 0){
    80000d04:	fed518e3          	bne	a0,a3,80000cf4 <memcmp+0x14>
  }

  return 0;
    80000d08:	4501                	li	a0,0
    80000d0a:	a019                	j	80000d10 <memcmp+0x30>
      return *s1 - *s2;
    80000d0c:	40e7853b          	subw	a0,a5,a4
}
    80000d10:	6422                	ld	s0,8(sp)
    80000d12:	0141                	addi	sp,sp,16
    80000d14:	8082                	ret
  return 0;
    80000d16:	4501                	li	a0,0
    80000d18:	bfe5                	j	80000d10 <memcmp+0x30>

0000000080000d1a <memmove>:

void*
memmove(void *dst, const void *src, uint n)
{
    80000d1a:	1141                	addi	sp,sp,-16
    80000d1c:	e422                	sd	s0,8(sp)
    80000d1e:	0800                	addi	s0,sp,16
  const char *s;
  char *d;

  s = src;
  d = dst;
  if(s < d && s + n > d){
    80000d20:	02a5e563          	bltu	a1,a0,80000d4a <memmove+0x30>
    s += n;
    d += n;
    while(n-- > 0)
      *--d = *--s;
  } else
    while(n-- > 0)
    80000d24:	fff6069b          	addiw	a3,a2,-1
    80000d28:	ce11                	beqz	a2,80000d44 <memmove+0x2a>
    80000d2a:	1682                	slli	a3,a3,0x20
    80000d2c:	9281                	srli	a3,a3,0x20
    80000d2e:	0685                	addi	a3,a3,1
    80000d30:	96ae                	add	a3,a3,a1
    80000d32:	87aa                	mv	a5,a0
      *d++ = *s++;
    80000d34:	0585                	addi	a1,a1,1
    80000d36:	0785                	addi	a5,a5,1
    80000d38:	fff5c703          	lbu	a4,-1(a1)
    80000d3c:	fee78fa3          	sb	a4,-1(a5)
    while(n-- > 0)
    80000d40:	fed59ae3          	bne	a1,a3,80000d34 <memmove+0x1a>

  return dst;
}
    80000d44:	6422                	ld	s0,8(sp)
    80000d46:	0141                	addi	sp,sp,16
    80000d48:	8082                	ret
  if(s < d && s + n > d){
    80000d4a:	02061713          	slli	a4,a2,0x20
    80000d4e:	9301                	srli	a4,a4,0x20
    80000d50:	00e587b3          	add	a5,a1,a4
    80000d54:	fcf578e3          	bgeu	a0,a5,80000d24 <memmove+0xa>
    d += n;
    80000d58:	972a                	add	a4,a4,a0
    while(n-- > 0)
    80000d5a:	fff6069b          	addiw	a3,a2,-1
    80000d5e:	d27d                	beqz	a2,80000d44 <memmove+0x2a>
    80000d60:	02069613          	slli	a2,a3,0x20
    80000d64:	9201                	srli	a2,a2,0x20
    80000d66:	fff64613          	not	a2,a2
    80000d6a:	963e                	add	a2,a2,a5
      *--d = *--s;
    80000d6c:	17fd                	addi	a5,a5,-1
    80000d6e:	177d                	addi	a4,a4,-1
    80000d70:	0007c683          	lbu	a3,0(a5)
    80000d74:	00d70023          	sb	a3,0(a4)
    while(n-- > 0)
    80000d78:	fef61ae3          	bne	a2,a5,80000d6c <memmove+0x52>
    80000d7c:	b7e1                	j	80000d44 <memmove+0x2a>

0000000080000d7e <memcpy>:

// memcpy exists to placate GCC.  Use memmove.
void*
memcpy(void *dst, const void *src, uint n)
{
    80000d7e:	1141                	addi	sp,sp,-16
    80000d80:	e406                	sd	ra,8(sp)
    80000d82:	e022                	sd	s0,0(sp)
    80000d84:	0800                	addi	s0,sp,16
  return memmove(dst, src, n);
    80000d86:	00000097          	auipc	ra,0x0
    80000d8a:	f94080e7          	jalr	-108(ra) # 80000d1a <memmove>
}
    80000d8e:	60a2                	ld	ra,8(sp)
    80000d90:	6402                	ld	s0,0(sp)
    80000d92:	0141                	addi	sp,sp,16
    80000d94:	8082                	ret

0000000080000d96 <strncmp>:

int
strncmp(const char *p, const char *q, uint n)
{
    80000d96:	1141                	addi	sp,sp,-16
    80000d98:	e422                	sd	s0,8(sp)
    80000d9a:	0800                	addi	s0,sp,16
  while(n > 0 && *p && *p == *q)
    80000d9c:	ce11                	beqz	a2,80000db8 <strncmp+0x22>
    80000d9e:	00054783          	lbu	a5,0(a0)
    80000da2:	cf89                	beqz	a5,80000dbc <strncmp+0x26>
    80000da4:	0005c703          	lbu	a4,0(a1)
    80000da8:	00f71a63          	bne	a4,a5,80000dbc <strncmp+0x26>
    n--, p++, q++;
    80000dac:	367d                	addiw	a2,a2,-1
    80000dae:	0505                	addi	a0,a0,1
    80000db0:	0585                	addi	a1,a1,1
  while(n > 0 && *p && *p == *q)
    80000db2:	f675                	bnez	a2,80000d9e <strncmp+0x8>
  if(n == 0)
    return 0;
    80000db4:	4501                	li	a0,0
    80000db6:	a809                	j	80000dc8 <strncmp+0x32>
    80000db8:	4501                	li	a0,0
    80000dba:	a039                	j	80000dc8 <strncmp+0x32>
  if(n == 0)
    80000dbc:	ca09                	beqz	a2,80000dce <strncmp+0x38>
  return (uchar)*p - (uchar)*q;
    80000dbe:	00054503          	lbu	a0,0(a0)
    80000dc2:	0005c783          	lbu	a5,0(a1)
    80000dc6:	9d1d                	subw	a0,a0,a5
}
    80000dc8:	6422                	ld	s0,8(sp)
    80000dca:	0141                	addi	sp,sp,16
    80000dcc:	8082                	ret
    return 0;
    80000dce:	4501                	li	a0,0
    80000dd0:	bfe5                	j	80000dc8 <strncmp+0x32>

0000000080000dd2 <strncpy>:

char*
strncpy(char *s, const char *t, int n)
{
    80000dd2:	1141                	addi	sp,sp,-16
    80000dd4:	e422                	sd	s0,8(sp)
    80000dd6:	0800                	addi	s0,sp,16
  char *os;

  os = s;
  while(n-- > 0 && (*s++ = *t++) != 0)
    80000dd8:	872a                	mv	a4,a0
    80000dda:	8832                	mv	a6,a2
    80000ddc:	367d                	addiw	a2,a2,-1
    80000dde:	01005963          	blez	a6,80000df0 <strncpy+0x1e>
    80000de2:	0705                	addi	a4,a4,1
    80000de4:	0005c783          	lbu	a5,0(a1)
    80000de8:	fef70fa3          	sb	a5,-1(a4)
    80000dec:	0585                	addi	a1,a1,1
    80000dee:	f7f5                	bnez	a5,80000dda <strncpy+0x8>
    ;
  while(n-- > 0)
    80000df0:	86ba                	mv	a3,a4
    80000df2:	00c05c63          	blez	a2,80000e0a <strncpy+0x38>
    *s++ = 0;
    80000df6:	0685                	addi	a3,a3,1
    80000df8:	fe068fa3          	sb	zero,-1(a3)
  while(n-- > 0)
    80000dfc:	fff6c793          	not	a5,a3
    80000e00:	9fb9                	addw	a5,a5,a4
    80000e02:	010787bb          	addw	a5,a5,a6
    80000e06:	fef048e3          	bgtz	a5,80000df6 <strncpy+0x24>
  return os;
}
    80000e0a:	6422                	ld	s0,8(sp)
    80000e0c:	0141                	addi	sp,sp,16
    80000e0e:	8082                	ret

0000000080000e10 <safestrcpy>:

// Like strncpy but guaranteed to NUL-terminate.
char*
safestrcpy(char *s, const char *t, int n)
{
    80000e10:	1141                	addi	sp,sp,-16
    80000e12:	e422                	sd	s0,8(sp)
    80000e14:	0800                	addi	s0,sp,16
  char *os;

  os = s;
  if(n <= 0)
    80000e16:	02c05363          	blez	a2,80000e3c <safestrcpy+0x2c>
    80000e1a:	fff6069b          	addiw	a3,a2,-1
    80000e1e:	1682                	slli	a3,a3,0x20
    80000e20:	9281                	srli	a3,a3,0x20
    80000e22:	96ae                	add	a3,a3,a1
    80000e24:	87aa                	mv	a5,a0
    return os;
  while(--n > 0 && (*s++ = *t++) != 0)
    80000e26:	00d58963          	beq	a1,a3,80000e38 <safestrcpy+0x28>
    80000e2a:	0585                	addi	a1,a1,1
    80000e2c:	0785                	addi	a5,a5,1
    80000e2e:	fff5c703          	lbu	a4,-1(a1)
    80000e32:	fee78fa3          	sb	a4,-1(a5)
    80000e36:	fb65                	bnez	a4,80000e26 <safestrcpy+0x16>
    ;
  *s = 0;
    80000e38:	00078023          	sb	zero,0(a5)
  return os;
}
    80000e3c:	6422                	ld	s0,8(sp)
    80000e3e:	0141                	addi	sp,sp,16
    80000e40:	8082                	ret

0000000080000e42 <strlen>:

int
strlen(const char *s)
{
    80000e42:	1141                	addi	sp,sp,-16
    80000e44:	e422                	sd	s0,8(sp)
    80000e46:	0800                	addi	s0,sp,16
  int n;

  for(n = 0; s[n]; n++)
    80000e48:	00054783          	lbu	a5,0(a0)
    80000e4c:	cf91                	beqz	a5,80000e68 <strlen+0x26>
    80000e4e:	0505                	addi	a0,a0,1
    80000e50:	87aa                	mv	a5,a0
    80000e52:	4685                	li	a3,1
    80000e54:	9e89                	subw	a3,a3,a0
    80000e56:	00f6853b          	addw	a0,a3,a5
    80000e5a:	0785                	addi	a5,a5,1
    80000e5c:	fff7c703          	lbu	a4,-1(a5)
    80000e60:	fb7d                	bnez	a4,80000e56 <strlen+0x14>
    ;
  return n;
}
    80000e62:	6422                	ld	s0,8(sp)
    80000e64:	0141                	addi	sp,sp,16
    80000e66:	8082                	ret
  for(n = 0; s[n]; n++)
    80000e68:	4501                	li	a0,0
    80000e6a:	bfe5                	j	80000e62 <strlen+0x20>

0000000080000e6c <main>:
volatile static int started = 0;

// start() jumps here in supervisor mode on all CPUs.
void
main()
{
    80000e6c:	1141                	addi	sp,sp,-16
    80000e6e:	e406                	sd	ra,8(sp)
    80000e70:	e022                	sd	s0,0(sp)
    80000e72:	0800                	addi	s0,sp,16
  if(cpuid() == 0){
    80000e74:	00001097          	auipc	ra,0x1
    80000e78:	e92080e7          	jalr	-366(ra) # 80001d06 <cpuid>
    __sync_synchronize();


    started = 1;
  } else {
    while(started == 0)
    80000e7c:	00009717          	auipc	a4,0x9
    80000e80:	19c70713          	addi	a4,a4,412 # 8000a018 <started>
  if(cpuid() == 0){
    80000e84:	c139                	beqz	a0,80000eca <main+0x5e>
    while(started == 0)
    80000e86:	431c                	lw	a5,0(a4)
    80000e88:	2781                	sext.w	a5,a5
    80000e8a:	dff5                	beqz	a5,80000e86 <main+0x1a>
      ;
    __sync_synchronize();
    80000e8c:	0ff0000f          	fence
    printf("hart %d starting\n", cpuid());
    80000e90:	00001097          	auipc	ra,0x1
    80000e94:	e76080e7          	jalr	-394(ra) # 80001d06 <cpuid>
    80000e98:	85aa                	mv	a1,a0
    80000e9a:	00008517          	auipc	a0,0x8
    80000e9e:	21e50513          	addi	a0,a0,542 # 800090b8 <digits+0x78>
    80000ea2:	fffff097          	auipc	ra,0xfffff
    80000ea6:	6d2080e7          	jalr	1746(ra) # 80000574 <printf>
    kvminithart();    // turn on paging
    80000eaa:	00000097          	auipc	ra,0x0
    80000eae:	0d8080e7          	jalr	216(ra) # 80000f82 <kvminithart>
    trapinithart();   // install kernel trap vector
    80000eb2:	00002097          	auipc	ra,0x2
    80000eb6:	168080e7          	jalr	360(ra) # 8000301a <trapinithart>
    plicinithart();   // ask PLIC for device interrupts
    80000eba:	00006097          	auipc	ra,0x6
    80000ebe:	d16080e7          	jalr	-746(ra) # 80006bd0 <plicinithart>
  }

  scheduler();        
    80000ec2:	00002097          	auipc	ra,0x2
    80000ec6:	ea4080e7          	jalr	-348(ra) # 80002d66 <scheduler>
    consoleinit();
    80000eca:	fffff097          	auipc	ra,0xfffff
    80000ece:	572080e7          	jalr	1394(ra) # 8000043c <consoleinit>
    printfinit();
    80000ed2:	00000097          	auipc	ra,0x0
    80000ed6:	882080e7          	jalr	-1918(ra) # 80000754 <printfinit>
    printf("\n");
    80000eda:	00008517          	auipc	a0,0x8
    80000ede:	7be50513          	addi	a0,a0,1982 # 80009698 <digits+0x658>
    80000ee2:	fffff097          	auipc	ra,0xfffff
    80000ee6:	692080e7          	jalr	1682(ra) # 80000574 <printf>
    printf("xv6 kernel is booting\n");
    80000eea:	00008517          	auipc	a0,0x8
    80000eee:	1b650513          	addi	a0,a0,438 # 800090a0 <digits+0x60>
    80000ef2:	fffff097          	auipc	ra,0xfffff
    80000ef6:	682080e7          	jalr	1666(ra) # 80000574 <printf>
    printf("\n");
    80000efa:	00008517          	auipc	a0,0x8
    80000efe:	79e50513          	addi	a0,a0,1950 # 80009698 <digits+0x658>
    80000f02:	fffff097          	auipc	ra,0xfffff
    80000f06:	672080e7          	jalr	1650(ra) # 80000574 <printf>
    kinit();         // physical page allocator
    80000f0a:	00000097          	auipc	ra,0x0
    80000f0e:	b8c080e7          	jalr	-1140(ra) # 80000a96 <kinit>
    kvminit();       // create kernel page table
    80000f12:	00000097          	auipc	ra,0x0
    80000f16:	33c080e7          	jalr	828(ra) # 8000124e <kvminit>
    kvminithart();   // turn on paging
    80000f1a:	00000097          	auipc	ra,0x0
    80000f1e:	068080e7          	jalr	104(ra) # 80000f82 <kvminithart>
    procinit();      // process table
    80000f22:	00001097          	auipc	ra,0x1
    80000f26:	d34080e7          	jalr	-716(ra) # 80001c56 <procinit>
    trapinit();      // trap vectors
    80000f2a:	00002097          	auipc	ra,0x2
    80000f2e:	0c8080e7          	jalr	200(ra) # 80002ff2 <trapinit>
    trapinithart();  // install kernel trap vector
    80000f32:	00002097          	auipc	ra,0x2
    80000f36:	0e8080e7          	jalr	232(ra) # 8000301a <trapinithart>
    plicinit();      // set up interrupt controller
    80000f3a:	00006097          	auipc	ra,0x6
    80000f3e:	c80080e7          	jalr	-896(ra) # 80006bba <plicinit>
    plicinithart();  // ask PLIC for device interrupts
    80000f42:	00006097          	auipc	ra,0x6
    80000f46:	c8e080e7          	jalr	-882(ra) # 80006bd0 <plicinithart>
    binit();         // buffer cache
    80000f4a:	00003097          	auipc	ra,0x3
    80000f4e:	91a080e7          	jalr	-1766(ra) # 80003864 <binit>
    iinit();         // inode cache
    80000f52:	00003097          	auipc	ra,0x3
    80000f56:	fac080e7          	jalr	-84(ra) # 80003efe <iinit>
    fileinit();      // file table
    80000f5a:	00004097          	auipc	ra,0x4
    80000f5e:	26c080e7          	jalr	620(ra) # 800051c6 <fileinit>
    virtio_disk_init(); // emulated hard disk
    80000f62:	00006097          	auipc	ra,0x6
    80000f66:	d90080e7          	jalr	-624(ra) # 80006cf2 <virtio_disk_init>
    userinit();      // first user process
    80000f6a:	00001097          	auipc	ra,0x1
    80000f6e:	0b8080e7          	jalr	184(ra) # 80002022 <userinit>
    __sync_synchronize();
    80000f72:	0ff0000f          	fence
    started = 1;
    80000f76:	4785                	li	a5,1
    80000f78:	00009717          	auipc	a4,0x9
    80000f7c:	0af72023          	sw	a5,160(a4) # 8000a018 <started>
    80000f80:	b789                	j	80000ec2 <main+0x56>

0000000080000f82 <kvminithart>:
}

// Switch h/w page table register to the kernel's page table,
// and enable paging.
void kvminithart()
{
    80000f82:	1141                	addi	sp,sp,-16
    80000f84:	e422                	sd	s0,8(sp)
    80000f86:	0800                	addi	s0,sp,16
  w_satp(MAKE_SATP(kernel_pagetable));
    80000f88:	00009797          	auipc	a5,0x9
    80000f8c:	0987b783          	ld	a5,152(a5) # 8000a020 <kernel_pagetable>
    80000f90:	83b1                	srli	a5,a5,0xc
    80000f92:	577d                	li	a4,-1
    80000f94:	177e                	slli	a4,a4,0x3f
    80000f96:	8fd9                	or	a5,a5,a4
  asm volatile("csrw satp, %0" : : "r" (x));
    80000f98:	18079073          	csrw	satp,a5
// flush the TLB.
static inline void
sfence_vma()
{
  // the zero, zero means flush all TLB entries.
  asm volatile("sfence.vma zero, zero");
    80000f9c:	12000073          	sfence.vma
  sfence_vma();
}
    80000fa0:	6422                	ld	s0,8(sp)
    80000fa2:	0141                	addi	sp,sp,16
    80000fa4:	8082                	ret

0000000080000fa6 <walk>:
//   21..29 -- 9 bits of level-1 index.
//   12..20 -- 9 bits of level-0 index.
//    0..11 -- 12 bits of byte offset within the page.
pte_t *
walk(pagetable_t pagetable, uint64 va, int alloc)
{
    80000fa6:	7139                	addi	sp,sp,-64
    80000fa8:	fc06                	sd	ra,56(sp)
    80000faa:	f822                	sd	s0,48(sp)
    80000fac:	f426                	sd	s1,40(sp)
    80000fae:	f04a                	sd	s2,32(sp)
    80000fb0:	ec4e                	sd	s3,24(sp)
    80000fb2:	e852                	sd	s4,16(sp)
    80000fb4:	e456                	sd	s5,8(sp)
    80000fb6:	e05a                	sd	s6,0(sp)
    80000fb8:	0080                	addi	s0,sp,64
    80000fba:	84aa                	mv	s1,a0
    80000fbc:	89ae                	mv	s3,a1
    80000fbe:	8ab2                	mv	s5,a2
  if (va >= MAXVA)
    80000fc0:	57fd                	li	a5,-1
    80000fc2:	83e9                	srli	a5,a5,0x1a
    80000fc4:	4a79                	li	s4,30
    panic("walk");
  
   

  for (int level = 2; level > 0; level--)
    80000fc6:	4b31                	li	s6,12
  if (va >= MAXVA)
    80000fc8:	04b7f263          	bgeu	a5,a1,8000100c <walk+0x66>
    panic("walk");
    80000fcc:	00008517          	auipc	a0,0x8
    80000fd0:	10450513          	addi	a0,a0,260 # 800090d0 <digits+0x90>
    80000fd4:	fffff097          	auipc	ra,0xfffff
    80000fd8:	556080e7          	jalr	1366(ra) # 8000052a <panic>
    {
      pagetable = (pagetable_t)PTE2PA(*pte);
    }
    else
    {
      if (!alloc || (pagetable = (pde_t *)kalloc()) == 0)
    80000fdc:	060a8663          	beqz	s5,80001048 <walk+0xa2>
    80000fe0:	00000097          	auipc	ra,0x0
    80000fe4:	af2080e7          	jalr	-1294(ra) # 80000ad2 <kalloc>
    80000fe8:	84aa                	mv	s1,a0
    80000fea:	c529                	beqz	a0,80001034 <walk+0x8e>
        return 0;
      memset(pagetable, 0, PGSIZE);
    80000fec:	6605                	lui	a2,0x1
    80000fee:	4581                	li	a1,0
    80000ff0:	00000097          	auipc	ra,0x0
    80000ff4:	cce080e7          	jalr	-818(ra) # 80000cbe <memset>
      *pte = PA2PTE(pagetable) | PTE_V;
    80000ff8:	00c4d793          	srli	a5,s1,0xc
    80000ffc:	07aa                	slli	a5,a5,0xa
    80000ffe:	0017e793          	ori	a5,a5,1
    80001002:	00f93023          	sd	a5,0(s2)
  for (int level = 2; level > 0; level--)
    80001006:	3a5d                	addiw	s4,s4,-9
    80001008:	036a0063          	beq	s4,s6,80001028 <walk+0x82>
    pte_t *pte = &pagetable[PX(level, va)];
    8000100c:	0149d933          	srl	s2,s3,s4
    80001010:	1ff97913          	andi	s2,s2,511
    80001014:	090e                	slli	s2,s2,0x3
    80001016:	9926                	add	s2,s2,s1
    if (*pte & PTE_V)
    80001018:	00093483          	ld	s1,0(s2)
    8000101c:	0014f793          	andi	a5,s1,1
    80001020:	dfd5                	beqz	a5,80000fdc <walk+0x36>
      pagetable = (pagetable_t)PTE2PA(*pte);
    80001022:	80a9                	srli	s1,s1,0xa
    80001024:	04b2                	slli	s1,s1,0xc
    80001026:	b7c5                	j	80001006 <walk+0x60>
    }
  }
  return &pagetable[PX(0, va)];
    80001028:	00c9d513          	srli	a0,s3,0xc
    8000102c:	1ff57513          	andi	a0,a0,511
    80001030:	050e                	slli	a0,a0,0x3
    80001032:	9526                	add	a0,a0,s1
}
    80001034:	70e2                	ld	ra,56(sp)
    80001036:	7442                	ld	s0,48(sp)
    80001038:	74a2                	ld	s1,40(sp)
    8000103a:	7902                	ld	s2,32(sp)
    8000103c:	69e2                	ld	s3,24(sp)
    8000103e:	6a42                	ld	s4,16(sp)
    80001040:	6aa2                	ld	s5,8(sp)
    80001042:	6b02                	ld	s6,0(sp)
    80001044:	6121                	addi	sp,sp,64
    80001046:	8082                	ret
        return 0;
    80001048:	4501                	li	a0,0
    8000104a:	b7ed                	j	80001034 <walk+0x8e>

000000008000104c <walkaddr>:
// Look up a virtual address, return the physical address,
// or 0 if not mapped.
// Can only be used to look up user pages.
uint64
walkaddr(pagetable_t pagetable, uint64 va, int to_page_out)
{
    8000104c:	7179                	addi	sp,sp,-48
    8000104e:	f406                	sd	ra,40(sp)
    80001050:	f022                	sd	s0,32(sp)
    80001052:	ec26                	sd	s1,24(sp)
    80001054:	e84a                	sd	s2,16(sp)
    80001056:	e44e                	sd	s3,8(sp)
    80001058:	1800                	addi	s0,sp,48
    8000105a:	892a                	mv	s2,a0
    8000105c:	84ae                	mv	s1,a1
    8000105e:	89b2                	mv	s3,a2
  
  // check if we have space in phsical addres or in case the

  pte_t *pte;
  uint64 pa;
  struct proc *p = myproc();
    80001060:	00001097          	auipc	ra,0x1
    80001064:	cd2080e7          	jalr	-814(ra) # 80001d32 <myproc>

  if (va >= MAXVA)
    80001068:	57fd                	li	a5,-1
    8000106a:	83e9                	srli	a5,a5,0x1a
    return 0;
    8000106c:	4501                	li	a0,0
  if (va >= MAXVA)
    8000106e:	0097f963          	bgeu	a5,s1,80001080 <walkaddr+0x34>
      panic("walkaddr: fack pte is not valid ");
    *pte &= ~PTE_V;  // page table entry now invalid
    *pte |= PTE_PG; // paged out to secondary storage
  }
  return pa;
}
    80001072:	70a2                	ld	ra,40(sp)
    80001074:	7402                	ld	s0,32(sp)
    80001076:	64e2                	ld	s1,24(sp)
    80001078:	6942                	ld	s2,16(sp)
    8000107a:	69a2                	ld	s3,8(sp)
    8000107c:	6145                	addi	sp,sp,48
    8000107e:	8082                	ret
  pte = walk(pagetable, va, 0);
    80001080:	4601                	li	a2,0
    80001082:	85a6                	mv	a1,s1
    80001084:	854a                	mv	a0,s2
    80001086:	00000097          	auipc	ra,0x0
    8000108a:	f20080e7          	jalr	-224(ra) # 80000fa6 <walk>
    8000108e:	872a                	mv	a4,a0
  if (pte == 0 || !(*pte & PTE_V)){
    80001090:	c11d                	beqz	a0,800010b6 <walkaddr+0x6a>
    80001092:	6114                	ld	a3,0(a0)
  if ((*pte & PTE_U) == 0)
    80001094:	0116f613          	andi	a2,a3,17
    80001098:	47c5                	li	a5,17
    return 0;
    8000109a:	4501                	li	a0,0
  if ((*pte & PTE_U) == 0)
    8000109c:	fcf61be3          	bne	a2,a5,80001072 <walkaddr+0x26>
  pa = PTE2PA(*pte);
    800010a0:	00a6d793          	srli	a5,a3,0xa
    800010a4:	00c79513          	slli	a0,a5,0xc
  if (to_page_out)
    800010a8:	fc0985e3          	beqz	s3,80001072 <walkaddr+0x26>
    *pte &= ~PTE_V;  // page table entry now invalid
    800010ac:	9af9                	andi	a3,a3,-2
    *pte |= PTE_PG; // paged out to secondary storage
    800010ae:	2006e693          	ori	a3,a3,512
    800010b2:	e314                	sd	a3,0(a4)
    800010b4:	bf7d                	j	80001072 <walkaddr+0x26>
      return 0;
    800010b6:	4501                	li	a0,0
    800010b8:	bf6d                	j	80001072 <walkaddr+0x26>

00000000800010ba <mappages>:
// Create PTEs for virtual addresses starting at va that refer to
// physical addresses starting at pa. va and size might not
// be page-aligned. Returns 0 on success, -1 if walk() couldn't
// allocate a needed page-table page.
int mappages(pagetable_t pagetable, uint64 va, uint64 size, uint64 pa, int perm)
{
    800010ba:	715d                	addi	sp,sp,-80
    800010bc:	e486                	sd	ra,72(sp)
    800010be:	e0a2                	sd	s0,64(sp)
    800010c0:	fc26                	sd	s1,56(sp)
    800010c2:	f84a                	sd	s2,48(sp)
    800010c4:	f44e                	sd	s3,40(sp)
    800010c6:	f052                	sd	s4,32(sp)
    800010c8:	ec56                	sd	s5,24(sp)
    800010ca:	e85a                	sd	s6,16(sp)
    800010cc:	e45e                	sd	s7,8(sp)
    800010ce:	0880                	addi	s0,sp,80
    800010d0:	8aaa                	mv	s5,a0
    800010d2:	8b3a                	mv	s6,a4

  uint64 a, last;
  pte_t *pte;

  a = PGROUNDDOWN(va);
    800010d4:	777d                	lui	a4,0xfffff
    800010d6:	00e5f7b3          	and	a5,a1,a4
  last = PGROUNDDOWN(va + size - 1);
    800010da:	167d                	addi	a2,a2,-1
    800010dc:	00b609b3          	add	s3,a2,a1
    800010e0:	00e9f9b3          	and	s3,s3,a4
  a = PGROUNDDOWN(va);
    800010e4:	893e                	mv	s2,a5
    800010e6:	40f68a33          	sub	s4,a3,a5
    if (*pte & PTE_V)
      panic("remap");
    *pte = PA2PTE(pa) | perm | PTE_V;
    if (a == last)
      break;
    a += PGSIZE;
    800010ea:	6b85                	lui	s7,0x1
    800010ec:	012a04b3          	add	s1,s4,s2
    if ((pte = walk(pagetable, a, 1)) == 0)
    800010f0:	4605                	li	a2,1
    800010f2:	85ca                	mv	a1,s2
    800010f4:	8556                	mv	a0,s5
    800010f6:	00000097          	auipc	ra,0x0
    800010fa:	eb0080e7          	jalr	-336(ra) # 80000fa6 <walk>
    800010fe:	c51d                	beqz	a0,8000112c <mappages+0x72>
    if (*pte & PTE_V)
    80001100:	611c                	ld	a5,0(a0)
    80001102:	8b85                	andi	a5,a5,1
    80001104:	ef81                	bnez	a5,8000111c <mappages+0x62>
    *pte = PA2PTE(pa) | perm | PTE_V;
    80001106:	80b1                	srli	s1,s1,0xc
    80001108:	04aa                	slli	s1,s1,0xa
    8000110a:	0164e4b3          	or	s1,s1,s6
    8000110e:	0014e493          	ori	s1,s1,1
    80001112:	e104                	sd	s1,0(a0)
    if (a == last)
    80001114:	03390863          	beq	s2,s3,80001144 <mappages+0x8a>
    a += PGSIZE;
    80001118:	995e                	add	s2,s2,s7
    if ((pte = walk(pagetable, a, 1)) == 0)
    8000111a:	bfc9                	j	800010ec <mappages+0x32>
      panic("remap");
    8000111c:	00008517          	auipc	a0,0x8
    80001120:	fbc50513          	addi	a0,a0,-68 # 800090d8 <digits+0x98>
    80001124:	fffff097          	auipc	ra,0xfffff
    80001128:	406080e7          	jalr	1030(ra) # 8000052a <panic>
      return -1;
    8000112c:	557d                	li	a0,-1
    pa += PGSIZE;
  }
  return 0;
}
    8000112e:	60a6                	ld	ra,72(sp)
    80001130:	6406                	ld	s0,64(sp)
    80001132:	74e2                	ld	s1,56(sp)
    80001134:	7942                	ld	s2,48(sp)
    80001136:	79a2                	ld	s3,40(sp)
    80001138:	7a02                	ld	s4,32(sp)
    8000113a:	6ae2                	ld	s5,24(sp)
    8000113c:	6b42                	ld	s6,16(sp)
    8000113e:	6ba2                	ld	s7,8(sp)
    80001140:	6161                	addi	sp,sp,80
    80001142:	8082                	ret
  return 0;
    80001144:	4501                	li	a0,0
    80001146:	b7e5                	j	8000112e <mappages+0x74>

0000000080001148 <kvmmap>:
{
    80001148:	1141                	addi	sp,sp,-16
    8000114a:	e406                	sd	ra,8(sp)
    8000114c:	e022                	sd	s0,0(sp)
    8000114e:	0800                	addi	s0,sp,16
    80001150:	87b6                	mv	a5,a3
  if (mappages(kpgtbl, va, sz, pa, perm) != 0)
    80001152:	86b2                	mv	a3,a2
    80001154:	863e                	mv	a2,a5
    80001156:	00000097          	auipc	ra,0x0
    8000115a:	f64080e7          	jalr	-156(ra) # 800010ba <mappages>
    8000115e:	e509                	bnez	a0,80001168 <kvmmap+0x20>
}
    80001160:	60a2                	ld	ra,8(sp)
    80001162:	6402                	ld	s0,0(sp)
    80001164:	0141                	addi	sp,sp,16
    80001166:	8082                	ret
    panic("kvmmap");
    80001168:	00008517          	auipc	a0,0x8
    8000116c:	f7850513          	addi	a0,a0,-136 # 800090e0 <digits+0xa0>
    80001170:	fffff097          	auipc	ra,0xfffff
    80001174:	3ba080e7          	jalr	954(ra) # 8000052a <panic>

0000000080001178 <kvmmake>:
{
    80001178:	1101                	addi	sp,sp,-32
    8000117a:	ec06                	sd	ra,24(sp)
    8000117c:	e822                	sd	s0,16(sp)
    8000117e:	e426                	sd	s1,8(sp)
    80001180:	e04a                	sd	s2,0(sp)
    80001182:	1000                	addi	s0,sp,32
  kpgtbl = (pagetable_t)kalloc();
    80001184:	00000097          	auipc	ra,0x0
    80001188:	94e080e7          	jalr	-1714(ra) # 80000ad2 <kalloc>
    8000118c:	84aa                	mv	s1,a0
  memset(kpgtbl, 0, PGSIZE);
    8000118e:	6605                	lui	a2,0x1
    80001190:	4581                	li	a1,0
    80001192:	00000097          	auipc	ra,0x0
    80001196:	b2c080e7          	jalr	-1236(ra) # 80000cbe <memset>
  kvmmap(kpgtbl, UART0, UART0, PGSIZE, PTE_R | PTE_W);
    8000119a:	4719                	li	a4,6
    8000119c:	6685                	lui	a3,0x1
    8000119e:	10000637          	lui	a2,0x10000
    800011a2:	100005b7          	lui	a1,0x10000
    800011a6:	8526                	mv	a0,s1
    800011a8:	00000097          	auipc	ra,0x0
    800011ac:	fa0080e7          	jalr	-96(ra) # 80001148 <kvmmap>
  kvmmap(kpgtbl, VIRTIO0, VIRTIO0, PGSIZE, PTE_R | PTE_W);
    800011b0:	4719                	li	a4,6
    800011b2:	6685                	lui	a3,0x1
    800011b4:	10001637          	lui	a2,0x10001
    800011b8:	100015b7          	lui	a1,0x10001
    800011bc:	8526                	mv	a0,s1
    800011be:	00000097          	auipc	ra,0x0
    800011c2:	f8a080e7          	jalr	-118(ra) # 80001148 <kvmmap>
  kvmmap(kpgtbl, PLIC, PLIC, 0x400000, PTE_R | PTE_W);
    800011c6:	4719                	li	a4,6
    800011c8:	004006b7          	lui	a3,0x400
    800011cc:	0c000637          	lui	a2,0xc000
    800011d0:	0c0005b7          	lui	a1,0xc000
    800011d4:	8526                	mv	a0,s1
    800011d6:	00000097          	auipc	ra,0x0
    800011da:	f72080e7          	jalr	-142(ra) # 80001148 <kvmmap>
  kvmmap(kpgtbl, KERNBASE, KERNBASE, (uint64)etext - KERNBASE, PTE_R | PTE_X);
    800011de:	00008917          	auipc	s2,0x8
    800011e2:	e2290913          	addi	s2,s2,-478 # 80009000 <etext>
    800011e6:	4729                	li	a4,10
    800011e8:	80008697          	auipc	a3,0x80008
    800011ec:	e1868693          	addi	a3,a3,-488 # 9000 <_entry-0x7fff7000>
    800011f0:	4605                	li	a2,1
    800011f2:	067e                	slli	a2,a2,0x1f
    800011f4:	85b2                	mv	a1,a2
    800011f6:	8526                	mv	a0,s1
    800011f8:	00000097          	auipc	ra,0x0
    800011fc:	f50080e7          	jalr	-176(ra) # 80001148 <kvmmap>
  kvmmap(kpgtbl, (uint64)etext, (uint64)etext, PHYSTOP - (uint64)etext, PTE_R | PTE_W);
    80001200:	4719                	li	a4,6
    80001202:	46c5                	li	a3,17
    80001204:	06ee                	slli	a3,a3,0x1b
    80001206:	412686b3          	sub	a3,a3,s2
    8000120a:	864a                	mv	a2,s2
    8000120c:	85ca                	mv	a1,s2
    8000120e:	8526                	mv	a0,s1
    80001210:	00000097          	auipc	ra,0x0
    80001214:	f38080e7          	jalr	-200(ra) # 80001148 <kvmmap>
  kvmmap(kpgtbl, TRAMPOLINE, (uint64)trampoline, PGSIZE, PTE_R | PTE_X);
    80001218:	4729                	li	a4,10
    8000121a:	6685                	lui	a3,0x1
    8000121c:	00007617          	auipc	a2,0x7
    80001220:	de460613          	addi	a2,a2,-540 # 80008000 <_trampoline>
    80001224:	040005b7          	lui	a1,0x4000
    80001228:	15fd                	addi	a1,a1,-1
    8000122a:	05b2                	slli	a1,a1,0xc
    8000122c:	8526                	mv	a0,s1
    8000122e:	00000097          	auipc	ra,0x0
    80001232:	f1a080e7          	jalr	-230(ra) # 80001148 <kvmmap>
  proc_mapstacks(kpgtbl);
    80001236:	8526                	mv	a0,s1
    80001238:	00001097          	auipc	ra,0x1
    8000123c:	988080e7          	jalr	-1656(ra) # 80001bc0 <proc_mapstacks>
}
    80001240:	8526                	mv	a0,s1
    80001242:	60e2                	ld	ra,24(sp)
    80001244:	6442                	ld	s0,16(sp)
    80001246:	64a2                	ld	s1,8(sp)
    80001248:	6902                	ld	s2,0(sp)
    8000124a:	6105                	addi	sp,sp,32
    8000124c:	8082                	ret

000000008000124e <kvminit>:
{
    8000124e:	1141                	addi	sp,sp,-16
    80001250:	e406                	sd	ra,8(sp)
    80001252:	e022                	sd	s0,0(sp)
    80001254:	0800                	addi	s0,sp,16
  kernel_pagetable = kvmmake();
    80001256:	00000097          	auipc	ra,0x0
    8000125a:	f22080e7          	jalr	-222(ra) # 80001178 <kvmmake>
    8000125e:	00009797          	auipc	a5,0x9
    80001262:	dca7b123          	sd	a0,-574(a5) # 8000a020 <kernel_pagetable>
}
    80001266:	60a2                	ld	ra,8(sp)
    80001268:	6402                	ld	s0,0(sp)
    8000126a:	0141                	addi	sp,sp,16
    8000126c:	8082                	ret

000000008000126e <uvmcreate>:

// create an empty user page table.
// returns 0 if out of memory.
pagetable_t
uvmcreate()
{
    8000126e:	1101                	addi	sp,sp,-32
    80001270:	ec06                	sd	ra,24(sp)
    80001272:	e822                	sd	s0,16(sp)
    80001274:	e426                	sd	s1,8(sp)
    80001276:	1000                	addi	s0,sp,32
  pagetable_t pagetable;
  pagetable = (pagetable_t)kalloc();
    80001278:	00000097          	auipc	ra,0x0
    8000127c:	85a080e7          	jalr	-1958(ra) # 80000ad2 <kalloc>
    80001280:	84aa                	mv	s1,a0
  if (pagetable == 0)
    80001282:	c519                	beqz	a0,80001290 <uvmcreate+0x22>
    return 0;
  memset(pagetable, 0, PGSIZE);
    80001284:	6605                	lui	a2,0x1
    80001286:	4581                	li	a1,0
    80001288:	00000097          	auipc	ra,0x0
    8000128c:	a36080e7          	jalr	-1482(ra) # 80000cbe <memset>
  return pagetable;
}
    80001290:	8526                	mv	a0,s1
    80001292:	60e2                	ld	ra,24(sp)
    80001294:	6442                	ld	s0,16(sp)
    80001296:	64a2                	ld	s1,8(sp)
    80001298:	6105                	addi	sp,sp,32
    8000129a:	8082                	ret

000000008000129c <uvminit>:

// Load the user initcode into address 0 of pagetable,
// for the very first process.
// sz must be less than a page.
void uvminit(pagetable_t pagetable, uchar *src, uint sz)
{
    8000129c:	7179                	addi	sp,sp,-48
    8000129e:	f406                	sd	ra,40(sp)
    800012a0:	f022                	sd	s0,32(sp)
    800012a2:	ec26                	sd	s1,24(sp)
    800012a4:	e84a                	sd	s2,16(sp)
    800012a6:	e44e                	sd	s3,8(sp)
    800012a8:	e052                	sd	s4,0(sp)
    800012aa:	1800                	addi	s0,sp,48
  char *mem;

  if (sz >= PGSIZE)
    800012ac:	6785                	lui	a5,0x1
    800012ae:	04f67863          	bgeu	a2,a5,800012fe <uvminit+0x62>
    800012b2:	8a2a                	mv	s4,a0
    800012b4:	89ae                	mv	s3,a1
    800012b6:	84b2                	mv	s1,a2
    panic("inituvm: more than a page");
  mem = kalloc();
    800012b8:	00000097          	auipc	ra,0x0
    800012bc:	81a080e7          	jalr	-2022(ra) # 80000ad2 <kalloc>
    800012c0:	892a                	mv	s2,a0
  memset(mem, 0, PGSIZE);
    800012c2:	6605                	lui	a2,0x1
    800012c4:	4581                	li	a1,0
    800012c6:	00000097          	auipc	ra,0x0
    800012ca:	9f8080e7          	jalr	-1544(ra) # 80000cbe <memset>
  mappages(pagetable, 0, PGSIZE, (uint64)mem, PTE_W | PTE_R | PTE_X | PTE_U);
    800012ce:	4779                	li	a4,30
    800012d0:	86ca                	mv	a3,s2
    800012d2:	6605                	lui	a2,0x1
    800012d4:	4581                	li	a1,0
    800012d6:	8552                	mv	a0,s4
    800012d8:	00000097          	auipc	ra,0x0
    800012dc:	de2080e7          	jalr	-542(ra) # 800010ba <mappages>
  memmove(mem, src, sz);
    800012e0:	8626                	mv	a2,s1
    800012e2:	85ce                	mv	a1,s3
    800012e4:	854a                	mv	a0,s2
    800012e6:	00000097          	auipc	ra,0x0
    800012ea:	a34080e7          	jalr	-1484(ra) # 80000d1a <memmove>
}
    800012ee:	70a2                	ld	ra,40(sp)
    800012f0:	7402                	ld	s0,32(sp)
    800012f2:	64e2                	ld	s1,24(sp)
    800012f4:	6942                	ld	s2,16(sp)
    800012f6:	69a2                	ld	s3,8(sp)
    800012f8:	6a02                	ld	s4,0(sp)
    800012fa:	6145                	addi	sp,sp,48
    800012fc:	8082                	ret
    panic("inituvm: more than a page");
    800012fe:	00008517          	auipc	a0,0x8
    80001302:	dea50513          	addi	a0,a0,-534 # 800090e8 <digits+0xa8>
    80001306:	fffff097          	auipc	ra,0xfffff
    8000130a:	224080e7          	jalr	548(ra) # 8000052a <panic>

000000008000130e <freewalk>:
}

// Recursively free page-table pages.
// All leaf mappings must already have been removed.
void freewalk(pagetable_t pagetable)
{
    8000130e:	7179                	addi	sp,sp,-48
    80001310:	f406                	sd	ra,40(sp)
    80001312:	f022                	sd	s0,32(sp)
    80001314:	ec26                	sd	s1,24(sp)
    80001316:	e84a                	sd	s2,16(sp)
    80001318:	e44e                	sd	s3,8(sp)
    8000131a:	e052                	sd	s4,0(sp)
    8000131c:	1800                	addi	s0,sp,48
    8000131e:	8a2a                	mv	s4,a0
  // there are 2^9 = 512 PTEs in a page table.
  for (int i = 0; i < 512; i++)
    80001320:	84aa                	mv	s1,a0
    80001322:	6905                	lui	s2,0x1
    80001324:	992a                	add	s2,s2,a0
  {
    pte_t pte = pagetable[i];
    if ((pte & PTE_V) && (pte & (PTE_R | PTE_W | PTE_X)) == 0)
    80001326:	4985                	li	s3,1
    80001328:	a821                	j	80001340 <freewalk+0x32>
    {
      // this PTE points to a lower-level page table.
      uint64 child = PTE2PA(pte);
    8000132a:	8129                	srli	a0,a0,0xa
      freewalk((pagetable_t)child);
    8000132c:	0532                	slli	a0,a0,0xc
    8000132e:	00000097          	auipc	ra,0x0
    80001332:	fe0080e7          	jalr	-32(ra) # 8000130e <freewalk>
      pagetable[i] = 0;
    80001336:	0004b023          	sd	zero,0(s1)
  for (int i = 0; i < 512; i++)
    8000133a:	04a1                	addi	s1,s1,8
    8000133c:	03248163          	beq	s1,s2,8000135e <freewalk+0x50>
    pte_t pte = pagetable[i];
    80001340:	6088                	ld	a0,0(s1)
    if ((pte & PTE_V) && (pte & (PTE_R | PTE_W | PTE_X)) == 0)
    80001342:	00f57793          	andi	a5,a0,15
    80001346:	ff3782e3          	beq	a5,s3,8000132a <freewalk+0x1c>
    }
    else if (pte & PTE_V)
    8000134a:	8905                	andi	a0,a0,1
    8000134c:	d57d                	beqz	a0,8000133a <freewalk+0x2c>
    {
      panic("freewalk: leaf");
    8000134e:	00008517          	auipc	a0,0x8
    80001352:	dba50513          	addi	a0,a0,-582 # 80009108 <digits+0xc8>
    80001356:	fffff097          	auipc	ra,0xfffff
    8000135a:	1d4080e7          	jalr	468(ra) # 8000052a <panic>
    }
  }
  kfree((void *)pagetable);
    8000135e:	8552                	mv	a0,s4
    80001360:	fffff097          	auipc	ra,0xfffff
    80001364:	676080e7          	jalr	1654(ra) # 800009d6 <kfree>
}
    80001368:	70a2                	ld	ra,40(sp)
    8000136a:	7402                	ld	s0,32(sp)
    8000136c:	64e2                	ld	s1,24(sp)
    8000136e:	6942                	ld	s2,16(sp)
    80001370:	69a2                	ld	s3,8(sp)
    80001372:	6a02                	ld	s4,0(sp)
    80001374:	6145                	addi	sp,sp,48
    80001376:	8082                	ret

0000000080001378 <uvmclear>:
}

// mark a PTE invalid for user access.
// used by exec for the user stack guard page.
void uvmclear(pagetable_t pagetable, uint64 va)
{
    80001378:	1141                	addi	sp,sp,-16
    8000137a:	e406                	sd	ra,8(sp)
    8000137c:	e022                	sd	s0,0(sp)
    8000137e:	0800                	addi	s0,sp,16

  pte_t *pte;

  pte = walk(pagetable, va, 0);
    80001380:	4601                	li	a2,0
    80001382:	00000097          	auipc	ra,0x0
    80001386:	c24080e7          	jalr	-988(ra) # 80000fa6 <walk>
  if (pte == 0)
    8000138a:	c901                	beqz	a0,8000139a <uvmclear+0x22>
    panic("uvmclear");
  *pte &= ~PTE_U;
    8000138c:	611c                	ld	a5,0(a0)
    8000138e:	9bbd                	andi	a5,a5,-17
    80001390:	e11c                	sd	a5,0(a0)
}
    80001392:	60a2                	ld	ra,8(sp)
    80001394:	6402                	ld	s0,0(sp)
    80001396:	0141                	addi	sp,sp,16
    80001398:	8082                	ret
    panic("uvmclear");
    8000139a:	00008517          	auipc	a0,0x8
    8000139e:	d7e50513          	addi	a0,a0,-642 # 80009118 <digits+0xd8>
    800013a2:	fffff097          	auipc	ra,0xfffff
    800013a6:	188080e7          	jalr	392(ra) # 8000052a <panic>

00000000800013aa <copyout>:
// Copy len bytes from src to virtual address dstva in a given page table.
// Return 0 on success, -1 on error.
int copyout(pagetable_t pagetable, uint64 dstva, char *src, uint64 len)
{
  uint64 n, va0, pa0;
  while (len > 0)
    800013aa:	caa5                	beqz	a3,8000141a <copyout+0x70>
{
    800013ac:	715d                	addi	sp,sp,-80
    800013ae:	e486                	sd	ra,72(sp)
    800013b0:	e0a2                	sd	s0,64(sp)
    800013b2:	fc26                	sd	s1,56(sp)
    800013b4:	f84a                	sd	s2,48(sp)
    800013b6:	f44e                	sd	s3,40(sp)
    800013b8:	f052                	sd	s4,32(sp)
    800013ba:	ec56                	sd	s5,24(sp)
    800013bc:	e85a                	sd	s6,16(sp)
    800013be:	e45e                	sd	s7,8(sp)
    800013c0:	e062                	sd	s8,0(sp)
    800013c2:	0880                	addi	s0,sp,80
    800013c4:	8b2a                	mv	s6,a0
    800013c6:	8c2e                	mv	s8,a1
    800013c8:	8a32                	mv	s4,a2
    800013ca:	89b6                	mv	s3,a3
  {
    va0 = PGROUNDDOWN(dstva);
    800013cc:	7bfd                	lui	s7,0xfffff
    pa0 = walkaddr(pagetable, va0, 0);
    if (pa0 == 0)
      return -1;
    n = PGSIZE - (dstva - va0);
    800013ce:	6a85                	lui	s5,0x1
    800013d0:	a015                	j	800013f4 <copyout+0x4a>
    if (n > len)
      n = len;
    memmove((void *)(pa0 + (dstva - va0)), src, n);
    800013d2:	9562                	add	a0,a0,s8
    800013d4:	0004861b          	sext.w	a2,s1
    800013d8:	85d2                	mv	a1,s4
    800013da:	41250533          	sub	a0,a0,s2
    800013de:	00000097          	auipc	ra,0x0
    800013e2:	93c080e7          	jalr	-1732(ra) # 80000d1a <memmove>

    len -= n;
    800013e6:	409989b3          	sub	s3,s3,s1
    src += n;
    800013ea:	9a26                	add	s4,s4,s1
    dstva = va0 + PGSIZE;
    800013ec:	01590c33          	add	s8,s2,s5
  while (len > 0)
    800013f0:	02098363          	beqz	s3,80001416 <copyout+0x6c>
    va0 = PGROUNDDOWN(dstva);
    800013f4:	017c7933          	and	s2,s8,s7
    pa0 = walkaddr(pagetable, va0, 0);
    800013f8:	4601                	li	a2,0
    800013fa:	85ca                	mv	a1,s2
    800013fc:	855a                	mv	a0,s6
    800013fe:	00000097          	auipc	ra,0x0
    80001402:	c4e080e7          	jalr	-946(ra) # 8000104c <walkaddr>
    if (pa0 == 0)
    80001406:	cd01                	beqz	a0,8000141e <copyout+0x74>
    n = PGSIZE - (dstva - va0);
    80001408:	418904b3          	sub	s1,s2,s8
    8000140c:	94d6                	add	s1,s1,s5
    if (n > len)
    8000140e:	fc99f2e3          	bgeu	s3,s1,800013d2 <copyout+0x28>
    80001412:	84ce                	mv	s1,s3
    80001414:	bf7d                	j	800013d2 <copyout+0x28>
  }

  return 0;
    80001416:	4501                	li	a0,0
    80001418:	a021                	j	80001420 <copyout+0x76>
    8000141a:	4501                	li	a0,0
}
    8000141c:	8082                	ret
      return -1;
    8000141e:	557d                	li	a0,-1
}
    80001420:	60a6                	ld	ra,72(sp)
    80001422:	6406                	ld	s0,64(sp)
    80001424:	74e2                	ld	s1,56(sp)
    80001426:	7942                	ld	s2,48(sp)
    80001428:	79a2                	ld	s3,40(sp)
    8000142a:	7a02                	ld	s4,32(sp)
    8000142c:	6ae2                	ld	s5,24(sp)
    8000142e:	6b42                	ld	s6,16(sp)
    80001430:	6ba2                	ld	s7,8(sp)
    80001432:	6c02                	ld	s8,0(sp)
    80001434:	6161                	addi	sp,sp,80
    80001436:	8082                	ret

0000000080001438 <copyin>:
int copyin(pagetable_t pagetable, char *dst, uint64 srcva, uint64 len)
{

  uint64 n, va0, pa0;

  while (len > 0)
    80001438:	caad                	beqz	a3,800014aa <copyin+0x72>
{
    8000143a:	715d                	addi	sp,sp,-80
    8000143c:	e486                	sd	ra,72(sp)
    8000143e:	e0a2                	sd	s0,64(sp)
    80001440:	fc26                	sd	s1,56(sp)
    80001442:	f84a                	sd	s2,48(sp)
    80001444:	f44e                	sd	s3,40(sp)
    80001446:	f052                	sd	s4,32(sp)
    80001448:	ec56                	sd	s5,24(sp)
    8000144a:	e85a                	sd	s6,16(sp)
    8000144c:	e45e                	sd	s7,8(sp)
    8000144e:	e062                	sd	s8,0(sp)
    80001450:	0880                	addi	s0,sp,80
    80001452:	8b2a                	mv	s6,a0
    80001454:	8a2e                	mv	s4,a1
    80001456:	8c32                	mv	s8,a2
    80001458:	89b6                	mv	s3,a3
  {
    va0 = PGROUNDDOWN(srcva);
    8000145a:	7bfd                	lui	s7,0xfffff
    pa0 = walkaddr(pagetable, va0, 0);
    if (pa0 == 0)
      return -1;
    n = PGSIZE - (srcva - va0);
    8000145c:	6a85                	lui	s5,0x1
    8000145e:	a01d                	j	80001484 <copyin+0x4c>
    if (n > len)
      n = len;
    memmove(dst, (void *)(pa0 + (srcva - va0)), n);
    80001460:	018505b3          	add	a1,a0,s8
    80001464:	0004861b          	sext.w	a2,s1
    80001468:	412585b3          	sub	a1,a1,s2
    8000146c:	8552                	mv	a0,s4
    8000146e:	00000097          	auipc	ra,0x0
    80001472:	8ac080e7          	jalr	-1876(ra) # 80000d1a <memmove>

    len -= n;
    80001476:	409989b3          	sub	s3,s3,s1
    dst += n;
    8000147a:	9a26                	add	s4,s4,s1
    srcva = va0 + PGSIZE;
    8000147c:	01590c33          	add	s8,s2,s5
  while (len > 0)
    80001480:	02098363          	beqz	s3,800014a6 <copyin+0x6e>
    va0 = PGROUNDDOWN(srcva);
    80001484:	017c7933          	and	s2,s8,s7
    pa0 = walkaddr(pagetable, va0, 0);
    80001488:	4601                	li	a2,0
    8000148a:	85ca                	mv	a1,s2
    8000148c:	855a                	mv	a0,s6
    8000148e:	00000097          	auipc	ra,0x0
    80001492:	bbe080e7          	jalr	-1090(ra) # 8000104c <walkaddr>
    if (pa0 == 0)
    80001496:	cd01                	beqz	a0,800014ae <copyin+0x76>
    n = PGSIZE - (srcva - va0);
    80001498:	418904b3          	sub	s1,s2,s8
    8000149c:	94d6                	add	s1,s1,s5
    if (n > len)
    8000149e:	fc99f1e3          	bgeu	s3,s1,80001460 <copyin+0x28>
    800014a2:	84ce                	mv	s1,s3
    800014a4:	bf75                	j	80001460 <copyin+0x28>
  }

  return 0;
    800014a6:	4501                	li	a0,0
    800014a8:	a021                	j	800014b0 <copyin+0x78>
    800014aa:	4501                	li	a0,0
}
    800014ac:	8082                	ret
      return -1;
    800014ae:	557d                	li	a0,-1
}
    800014b0:	60a6                	ld	ra,72(sp)
    800014b2:	6406                	ld	s0,64(sp)
    800014b4:	74e2                	ld	s1,56(sp)
    800014b6:	7942                	ld	s2,48(sp)
    800014b8:	79a2                	ld	s3,40(sp)
    800014ba:	7a02                	ld	s4,32(sp)
    800014bc:	6ae2                	ld	s5,24(sp)
    800014be:	6b42                	ld	s6,16(sp)
    800014c0:	6ba2                	ld	s7,8(sp)
    800014c2:	6c02                	ld	s8,0(sp)
    800014c4:	6161                	addi	sp,sp,80
    800014c6:	8082                	ret

00000000800014c8 <copyinstr>:
int copyinstr(pagetable_t pagetable, char *dst, uint64 srcva, uint64 max)
{
  uint64 n, va0, pa0;
  int got_null = 0;

  while (got_null == 0 && max > 0)
    800014c8:	c6cd                	beqz	a3,80001572 <copyinstr+0xaa>
{
    800014ca:	715d                	addi	sp,sp,-80
    800014cc:	e486                	sd	ra,72(sp)
    800014ce:	e0a2                	sd	s0,64(sp)
    800014d0:	fc26                	sd	s1,56(sp)
    800014d2:	f84a                	sd	s2,48(sp)
    800014d4:	f44e                	sd	s3,40(sp)
    800014d6:	f052                	sd	s4,32(sp)
    800014d8:	ec56                	sd	s5,24(sp)
    800014da:	e85a                	sd	s6,16(sp)
    800014dc:	e45e                	sd	s7,8(sp)
    800014de:	0880                	addi	s0,sp,80
    800014e0:	8a2a                	mv	s4,a0
    800014e2:	8b2e                	mv	s6,a1
    800014e4:	8bb2                	mv	s7,a2
    800014e6:	84b6                	mv	s1,a3
  {
    va0 = PGROUNDDOWN(srcva);
    800014e8:	7afd                	lui	s5,0xfffff
    pa0 = walkaddr(pagetable, va0, 0);
    if (pa0 == 0)
      return -1;
    n = PGSIZE - (srcva - va0);
    800014ea:	6985                	lui	s3,0x1
    800014ec:	a035                	j	80001518 <copyinstr+0x50>
    char *p = (char *)(pa0 + (srcva - va0));
    while (n > 0)
    {
      if (*p == '\0')
      {
        *dst = '\0';
    800014ee:	00078023          	sb	zero,0(a5) # 1000 <_entry-0x7ffff000>
    800014f2:	4785                	li	a5,1
      dst++;
    }

    srcva = va0 + PGSIZE;
  }
  if (got_null)
    800014f4:	0017b793          	seqz	a5,a5
    800014f8:	40f00533          	neg	a0,a5
  }
  else
  {
    return -1;
  }
} 
    800014fc:	60a6                	ld	ra,72(sp)
    800014fe:	6406                	ld	s0,64(sp)
    80001500:	74e2                	ld	s1,56(sp)
    80001502:	7942                	ld	s2,48(sp)
    80001504:	79a2                	ld	s3,40(sp)
    80001506:	7a02                	ld	s4,32(sp)
    80001508:	6ae2                	ld	s5,24(sp)
    8000150a:	6b42                	ld	s6,16(sp)
    8000150c:	6ba2                	ld	s7,8(sp)
    8000150e:	6161                	addi	sp,sp,80
    80001510:	8082                	ret
    srcva = va0 + PGSIZE;
    80001512:	01390bb3          	add	s7,s2,s3
  while (got_null == 0 && max > 0)
    80001516:	c8b1                	beqz	s1,8000156a <copyinstr+0xa2>
    va0 = PGROUNDDOWN(srcva);
    80001518:	015bf933          	and	s2,s7,s5
    pa0 = walkaddr(pagetable, va0, 0);
    8000151c:	4601                	li	a2,0
    8000151e:	85ca                	mv	a1,s2
    80001520:	8552                	mv	a0,s4
    80001522:	00000097          	auipc	ra,0x0
    80001526:	b2a080e7          	jalr	-1238(ra) # 8000104c <walkaddr>
    if (pa0 == 0)
    8000152a:	c131                	beqz	a0,8000156e <copyinstr+0xa6>
    n = PGSIZE - (srcva - va0);
    8000152c:	41790833          	sub	a6,s2,s7
    80001530:	984e                	add	a6,a6,s3
    if (n > max)
    80001532:	0104f363          	bgeu	s1,a6,80001538 <copyinstr+0x70>
    80001536:	8826                	mv	a6,s1
    char *p = (char *)(pa0 + (srcva - va0));
    80001538:	955e                	add	a0,a0,s7
    8000153a:	41250533          	sub	a0,a0,s2
    while (n > 0)
    8000153e:	fc080ae3          	beqz	a6,80001512 <copyinstr+0x4a>
    80001542:	985a                	add	a6,a6,s6
    80001544:	87da                	mv	a5,s6
      if (*p == '\0')
    80001546:	41650633          	sub	a2,a0,s6
    8000154a:	14fd                	addi	s1,s1,-1
    8000154c:	9b26                	add	s6,s6,s1
    8000154e:	00f60733          	add	a4,a2,a5
    80001552:	00074703          	lbu	a4,0(a4) # fffffffffffff000 <end+0xffffffff7ffcc000>
    80001556:	df41                	beqz	a4,800014ee <copyinstr+0x26>
        *dst = *p;
    80001558:	00e78023          	sb	a4,0(a5)
      --max;
    8000155c:	40fb04b3          	sub	s1,s6,a5
      dst++;
    80001560:	0785                	addi	a5,a5,1
    while (n > 0)
    80001562:	ff0796e3          	bne	a5,a6,8000154e <copyinstr+0x86>
      dst++;
    80001566:	8b42                	mv	s6,a6
    80001568:	b76d                	j	80001512 <copyinstr+0x4a>
    8000156a:	4781                	li	a5,0
    8000156c:	b761                	j	800014f4 <copyinstr+0x2c>
      return -1;
    8000156e:	557d                	li	a0,-1
    80001570:	b771                	j	800014fc <copyinstr+0x34>
  int got_null = 0;
    80001572:	4781                	li	a5,0
  if (got_null)
    80001574:	0017b793          	seqz	a5,a5
    80001578:	40f00533          	neg	a0,a5
} 
    8000157c:	8082                	ret

000000008000157e <insert_page_to_swap_file>:
// Update data structure
int insert_page_to_swap_file(uint64 a)
{
    8000157e:	1101                	addi	sp,sp,-32
    80001580:	ec06                	sd	ra,24(sp)
    80001582:	e822                	sd	s0,16(sp)
    80001584:	e426                	sd	s1,8(sp)
    80001586:	e04a                	sd	s2,0(sp)
    80001588:	1000                	addi	s0,sp,32
    8000158a:	892a                	mv	s2,a0
  struct proc *p = myproc();
    8000158c:	00000097          	auipc	ra,0x0
    80001590:	7a6080e7          	jalr	1958(ra) # 80001d32 <myproc>
    80001594:	84aa                	mv	s1,a0
  int free_index = get_next_free_space(p->pages_swap_info.free_spaces);
    80001596:	17855503          	lhu	a0,376(a0)
    8000159a:	00001097          	auipc	ra,0x1
    8000159e:	19a080e7          	jalr	410(ra) # 80002734 <get_next_free_space>
  if (free_index < 0 || free_index >= MAX_PSYC_PAGES)
    800015a2:	0005071b          	sext.w	a4,a0
    800015a6:	47bd                	li	a5,15
    800015a8:	02e7eb63          	bltu	a5,a4,800015de <insert_page_to_swap_file+0x60>
    panic("insert_swap: no free index in swap arr");
  p->pages_swap_info.pages[free_index].va = a;                // Set va of page
    800015ac:	00151793          	slli	a5,a0,0x1
    800015b0:	97aa                	add	a5,a5,a0
    800015b2:	078e                	slli	a5,a5,0x3
    800015b4:	97a6                	add	a5,a5,s1
    800015b6:	1927b023          	sd	s2,384(a5)

  if (p->pages_swap_info.free_spaces & (1 << free_index))
    800015ba:	1784d783          	lhu	a5,376(s1)
    800015be:	40a7d73b          	sraw	a4,a5,a0
    800015c2:	8b05                	andi	a4,a4,1
    800015c4:	e70d                	bnez	a4,800015ee <insert_page_to_swap_file+0x70>
    panic("insert_swap: tried to set free space flag when it is already set");
  p->pages_swap_info.free_spaces |= (1 << free_index); // Mark space as occupied
    800015c6:	4705                	li	a4,1
    800015c8:	00a7173b          	sllw	a4,a4,a0
    800015cc:	8fd9                	or	a5,a5,a4
    800015ce:	16f49c23          	sh	a5,376(s1)

  return free_index;
}
    800015d2:	60e2                	ld	ra,24(sp)
    800015d4:	6442                	ld	s0,16(sp)
    800015d6:	64a2                	ld	s1,8(sp)
    800015d8:	6902                	ld	s2,0(sp)
    800015da:	6105                	addi	sp,sp,32
    800015dc:	8082                	ret
    panic("insert_swap: no free index in swap arr");
    800015de:	00008517          	auipc	a0,0x8
    800015e2:	b4a50513          	addi	a0,a0,-1206 # 80009128 <digits+0xe8>
    800015e6:	fffff097          	auipc	ra,0xfffff
    800015ea:	f44080e7          	jalr	-188(ra) # 8000052a <panic>
    panic("insert_swap: tried to set free space flag when it is already set");
    800015ee:	00008517          	auipc	a0,0x8
    800015f2:	b6250513          	addi	a0,a0,-1182 # 80009150 <digits+0x110>
    800015f6:	fffff097          	auipc	ra,0xfffff
    800015fa:	f34080e7          	jalr	-204(ra) # 8000052a <panic>

00000000800015fe <insert_page_to_physical_memory>:
// Update data structure
int insert_page_to_physical_memory(uint64 a)
{
    800015fe:	7179                	addi	sp,sp,-48
    80001600:	f406                	sd	ra,40(sp)
    80001602:	f022                	sd	s0,32(sp)
    80001604:	ec26                	sd	s1,24(sp)
    80001606:	e84a                	sd	s2,16(sp)
    80001608:	e44e                	sd	s3,8(sp)
    8000160a:	1800                	addi	s0,sp,48
    8000160c:	89aa                	mv	s3,a0
  struct proc *p = myproc();
    8000160e:	00000097          	auipc	ra,0x0
    80001612:	724080e7          	jalr	1828(ra) # 80001d32 <myproc>
    80001616:	892a                	mv	s2,a0
  int free_index = get_next_free_space(p->pages_physc_info.free_spaces);
    80001618:	30055503          	lhu	a0,768(a0)
    8000161c:	00001097          	auipc	ra,0x1
    80001620:	118080e7          	jalr	280(ra) # 80002734 <get_next_free_space>
  if (free_index < 0 || free_index >= MAX_PSYC_PAGES)
    80001624:	0005071b          	sext.w	a4,a0
    80001628:	47bd                	li	a5,15
    8000162a:	04e7ef63          	bltu	a5,a4,80001688 <insert_page_to_physical_memory+0x8a>
    8000162e:	84aa                	mv	s1,a0
    panic("insert_phys: no free index in physc arr");
  p->pages_physc_info.pages[free_index].va = a;                // Set va of page
    80001630:	00151793          	slli	a5,a0,0x1
    80001634:	00a78733          	add	a4,a5,a0
    80001638:	070e                	slli	a4,a4,0x3
    8000163a:	974a                	add	a4,a4,s2
    8000163c:	31373423          	sd	s3,776(a4)
  p->pages_physc_info.pages[free_index].time_inserted = p->paging_time; //  Update insertion time
    80001640:	48893683          	ld	a3,1160(s2) # 1488 <_entry-0x7fffeb78>
    80001644:	30d72c23          	sw	a3,792(a4)
  p->paging_time++;
    80001648:	0685                	addi	a3,a3,1
    8000164a:	48d93423          	sd	a3,1160(s2)
  reset_aging_counter(&(p->pages_physc_info.pages[free_index]));
    8000164e:	953e                	add	a0,a0,a5
    80001650:	050e                	slli	a0,a0,0x3
    80001652:	30850513          	addi	a0,a0,776
    80001656:	954a                	add	a0,a0,s2
    80001658:	00001097          	auipc	ra,0x1
    8000165c:	7c0080e7          	jalr	1984(ra) # 80002e18 <reset_aging_counter>

  if (p->pages_physc_info.free_spaces & (1 << free_index))
    80001660:	30095783          	lhu	a5,768(s2)
    80001664:	4097d73b          	sraw	a4,a5,s1
    80001668:	8b05                	andi	a4,a4,1
    8000166a:	e71d                	bnez	a4,80001698 <insert_page_to_physical_memory+0x9a>
    panic("insert_phys: tried to set free space flag when it is already set");
  p->pages_physc_info.free_spaces |= (1 << free_index); // Mark space as occupied
    8000166c:	4705                	li	a4,1
    8000166e:	0097173b          	sllw	a4,a4,s1
    80001672:	8fd9                	or	a5,a5,a4
    80001674:	30f91023          	sh	a5,768(s2)

  return free_index;
}
    80001678:	8526                	mv	a0,s1
    8000167a:	70a2                	ld	ra,40(sp)
    8000167c:	7402                	ld	s0,32(sp)
    8000167e:	64e2                	ld	s1,24(sp)
    80001680:	6942                	ld	s2,16(sp)
    80001682:	69a2                	ld	s3,8(sp)
    80001684:	6145                	addi	sp,sp,48
    80001686:	8082                	ret
    panic("insert_phys: no free index in physc arr");
    80001688:	00008517          	auipc	a0,0x8
    8000168c:	b1050513          	addi	a0,a0,-1264 # 80009198 <digits+0x158>
    80001690:	fffff097          	auipc	ra,0xfffff
    80001694:	e9a080e7          	jalr	-358(ra) # 8000052a <panic>
    panic("insert_phys: tried to set free space flag when it is already set");
    80001698:	00008517          	auipc	a0,0x8
    8000169c:	b2850513          	addi	a0,a0,-1240 # 800091c0 <digits+0x180>
    800016a0:	fffff097          	auipc	ra,0xfffff
    800016a4:	e8a080e7          	jalr	-374(ra) # 8000052a <panic>

00000000800016a8 <remove_page_from_physical_memory>:

// Update data structure
int remove_page_from_physical_memory(uint64 a)
{
    800016a8:	1101                	addi	sp,sp,-32
    800016aa:	ec06                	sd	ra,24(sp)
    800016ac:	e822                	sd	s0,16(sp)
    800016ae:	e426                	sd	s1,8(sp)
    800016b0:	e04a                	sd	s2,0(sp)
    800016b2:	1000                	addi	s0,sp,32
    800016b4:	892a                	mv	s2,a0
  struct proc *p = myproc();
    800016b6:	00000097          	auipc	ra,0x0
    800016ba:	67c080e7          	jalr	1660(ra) # 80001d32 <myproc>
    800016be:	84aa                	mv	s1,a0
  int index = get_index_in_page_info_array(a, p->pages_physc_info.pages);
    800016c0:	30850593          	addi	a1,a0,776
    800016c4:	854a                	mv	a0,s2
    800016c6:	00001097          	auipc	ra,0x1
    800016ca:	09a080e7          	jalr	154(ra) # 80002760 <get_index_in_page_info_array>
  if (index < 0 || index >= MAX_PSYC_PAGES)
    800016ce:	0005071b          	sext.w	a4,a0
    800016d2:	47bd                	li	a5,15
    800016d4:	02e7ec63          	bltu	a5,a4,8000170c <remove_page_from_physical_memory+0x64>
    return -1; // page is not in phisical mem
  // panic("remove_page_from_physical_memory: not found page to free ");
  if (!(p->pages_physc_info.free_spaces & (1 << index)))
    800016d8:	3004d783          	lhu	a5,768(s1)
    800016dc:	40a7d73b          	sraw	a4,a5,a0
    800016e0:	8b05                	andi	a4,a4,1
    800016e2:	cf09                	beqz	a4,800016fc <remove_page_from_physical_memory+0x54>
    panic("remove_page_from_physical_memory: free space flag should be set but is unset");
  p->pages_physc_info.free_spaces ^= (1 << index);
    800016e4:	4705                	li	a4,1
    800016e6:	00a7173b          	sllw	a4,a4,a0
    800016ea:	8fb9                	xor	a5,a5,a4
    800016ec:	30f49023          	sh	a5,768(s1)

  return index;
}
    800016f0:	60e2                	ld	ra,24(sp)
    800016f2:	6442                	ld	s0,16(sp)
    800016f4:	64a2                	ld	s1,8(sp)
    800016f6:	6902                	ld	s2,0(sp)
    800016f8:	6105                	addi	sp,sp,32
    800016fa:	8082                	ret
    panic("remove_page_from_physical_memory: free space flag should be set but is unset");
    800016fc:	00008517          	auipc	a0,0x8
    80001700:	b0c50513          	addi	a0,a0,-1268 # 80009208 <digits+0x1c8>
    80001704:	fffff097          	auipc	ra,0xfffff
    80001708:	e26080e7          	jalr	-474(ra) # 8000052a <panic>
    return -1; // page is not in phisical mem
    8000170c:	557d                	li	a0,-1
    8000170e:	b7cd                	j	800016f0 <remove_page_from_physical_memory+0x48>

0000000080001710 <remove_page_from_swap_file>:

// Update data structure
int remove_page_from_swap_file(uint64 a)
{
    80001710:	1101                	addi	sp,sp,-32
    80001712:	ec06                	sd	ra,24(sp)
    80001714:	e822                	sd	s0,16(sp)
    80001716:	e426                	sd	s1,8(sp)
    80001718:	e04a                	sd	s2,0(sp)
    8000171a:	1000                	addi	s0,sp,32
    8000171c:	892a                	mv	s2,a0
  struct proc *p = myproc();
    8000171e:	00000097          	auipc	ra,0x0
    80001722:	614080e7          	jalr	1556(ra) # 80001d32 <myproc>
    80001726:	84aa                	mv	s1,a0
  int index = get_index_in_page_info_array(a, p->pages_swap_info.pages);
    80001728:	18050593          	addi	a1,a0,384
    8000172c:	854a                	mv	a0,s2
    8000172e:	00001097          	auipc	ra,0x1
    80001732:	032080e7          	jalr	50(ra) # 80002760 <get_index_in_page_info_array>
  if (index < 0 || index >= MAX_PSYC_PAGES)
    80001736:	0005071b          	sext.w	a4,a0
    8000173a:	47bd                	li	a5,15
    8000173c:	02e7ec63          	bltu	a5,a4,80001774 <remove_page_from_swap_file+0x64>
    return -1; // page is not in phisical mem
  // panic("remove_page_from_physical_memory: not found page to free ");
  if (!(p->pages_swap_info.free_spaces & (1 << index)))
    80001740:	1784d783          	lhu	a5,376(s1)
    80001744:	40a7d73b          	sraw	a4,a5,a0
    80001748:	8b05                	andi	a4,a4,1
    8000174a:	cf09                	beqz	a4,80001764 <remove_page_from_swap_file+0x54>
    panic("remove_page_from_swap_file: free space flag should be set but is unset");
  p->pages_swap_info.free_spaces ^= (1 << index);
    8000174c:	4705                	li	a4,1
    8000174e:	00a7173b          	sllw	a4,a4,a0
    80001752:	8fb9                	xor	a5,a5,a4
    80001754:	16f49c23          	sh	a5,376(s1)

  return index;
    80001758:	60e2                	ld	ra,24(sp)
    8000175a:	6442                	ld	s0,16(sp)
    8000175c:	64a2                	ld	s1,8(sp)
    8000175e:	6902                	ld	s2,0(sp)
    80001760:	6105                	addi	sp,sp,32
    80001762:	8082                	ret
    panic("remove_page_from_swap_file: free space flag should be set but is unset");
    80001764:	00008517          	auipc	a0,0x8
    80001768:	af450513          	addi	a0,a0,-1292 # 80009258 <digits+0x218>
    8000176c:	fffff097          	auipc	ra,0xfffff
    80001770:	dbe080e7          	jalr	-578(ra) # 8000052a <panic>
    return -1; // page is not in phisical mem
    80001774:	557d                	li	a0,-1
    80001776:	b7cd                	j	80001758 <remove_page_from_swap_file+0x48>

0000000080001778 <uvmunmap>:
{
    80001778:	711d                	addi	sp,sp,-96
    8000177a:	ec86                	sd	ra,88(sp)
    8000177c:	e8a2                	sd	s0,80(sp)
    8000177e:	e4a6                	sd	s1,72(sp)
    80001780:	e0ca                	sd	s2,64(sp)
    80001782:	fc4e                	sd	s3,56(sp)
    80001784:	f852                	sd	s4,48(sp)
    80001786:	f456                	sd	s5,40(sp)
    80001788:	f05a                	sd	s6,32(sp)
    8000178a:	ec5e                	sd	s7,24(sp)
    8000178c:	e862                	sd	s8,16(sp)
    8000178e:	e466                	sd	s9,8(sp)
    80001790:	1080                	addi	s0,sp,96
  if ((va % PGSIZE) != 0)
    80001792:	03459793          	slli	a5,a1,0x34
    80001796:	eb8d                	bnez	a5,800017c8 <uvmunmap+0x50>
    80001798:	89aa                	mv	s3,a0
    8000179a:	892e                	mv	s2,a1
    8000179c:	8b36                	mv	s6,a3
  for (a = va; a < va + npages * PGSIZE; a += PGSIZE)
    8000179e:	0632                	slli	a2,a2,0xc
    800017a0:	00b60a33          	add	s4,a2,a1
    if (PTE_FLAGS(*pte) == PTE_V)
    800017a4:	4b85                	li	s7,1
      if (myproc()->pid > 2 && pagetable == myproc()->pagetable)
    800017a6:	4c09                	li	s8,2
  for (a = va; a < va + npages * PGSIZE; a += PGSIZE)
    800017a8:	6a85                	lui	s5,0x1
    800017aa:	0b45e563          	bltu	a1,s4,80001854 <uvmunmap+0xdc>
}
    800017ae:	60e6                	ld	ra,88(sp)
    800017b0:	6446                	ld	s0,80(sp)
    800017b2:	64a6                	ld	s1,72(sp)
    800017b4:	6906                	ld	s2,64(sp)
    800017b6:	79e2                	ld	s3,56(sp)
    800017b8:	7a42                	ld	s4,48(sp)
    800017ba:	7aa2                	ld	s5,40(sp)
    800017bc:	7b02                	ld	s6,32(sp)
    800017be:	6be2                	ld	s7,24(sp)
    800017c0:	6c42                	ld	s8,16(sp)
    800017c2:	6ca2                	ld	s9,8(sp)
    800017c4:	6125                	addi	sp,sp,96
    800017c6:	8082                	ret
    panic("uvmunmap: not aligned");
    800017c8:	00008517          	auipc	a0,0x8
    800017cc:	ad850513          	addi	a0,a0,-1320 # 800092a0 <digits+0x260>
    800017d0:	fffff097          	auipc	ra,0xfffff
    800017d4:	d5a080e7          	jalr	-678(ra) # 8000052a <panic>
      panic("uvmunmap: walk");
    800017d8:	00008517          	auipc	a0,0x8
    800017dc:	ae050513          	addi	a0,a0,-1312 # 800092b8 <digits+0x278>
    800017e0:	fffff097          	auipc	ra,0xfffff
    800017e4:	d4a080e7          	jalr	-694(ra) # 8000052a <panic>
        struct proc *p = myproc();
    800017e8:	00000097          	auipc	ra,0x0
    800017ec:	54a080e7          	jalr	1354(ra) # 80001d32 <myproc>
    800017f0:	8caa                	mv	s9,a0
        if((*pte & PTE_PG)  && pagetable == p->pagetable){  // page is swapped out
    800017f2:	609c                	ld	a5,0(s1)
    800017f4:	2007f793          	andi	a5,a5,512
    800017f8:	cb8d                	beqz	a5,8000182a <uvmunmap+0xb2>
    800017fa:	693c                	ld	a5,80(a0)
    800017fc:	05379963          	bne	a5,s3,8000184e <uvmunmap+0xd6>
          if(remove_page_from_swap_file(a)<0)
    80001800:	854a                	mv	a0,s2
    80001802:	00000097          	auipc	ra,0x0
    80001806:	f0e080e7          	jalr	-242(ra) # 80001710 <remove_page_from_swap_file>
    8000180a:	00054863          	bltz	a0,8000181a <uvmunmap+0xa2>
          p->total_pages_num--;
    8000180e:	174ca783          	lw	a5,372(s9)
    80001812:	37fd                	addiw	a5,a5,-1
    80001814:	16fcaa23          	sw	a5,372(s9)
          continue;
    80001818:	a81d                	j	8000184e <uvmunmap+0xd6>
            panic("uvmunmap: cant find file bos");
    8000181a:	00008517          	auipc	a0,0x8
    8000181e:	aae50513          	addi	a0,a0,-1362 # 800092c8 <digits+0x288>
    80001822:	fffff097          	auipc	ra,0xfffff
    80001826:	d08080e7          	jalr	-760(ra) # 8000052a <panic>
          panic("uvmunmap: not mapped");
    8000182a:	00008517          	auipc	a0,0x8
    8000182e:	abe50513          	addi	a0,a0,-1346 # 800092e8 <digits+0x2a8>
    80001832:	fffff097          	auipc	ra,0xfffff
    80001836:	cf8080e7          	jalr	-776(ra) # 8000052a <panic>
      panic("uvmunmap: not a leaf");
    8000183a:	00008517          	auipc	a0,0x8
    8000183e:	ac650513          	addi	a0,a0,-1338 # 80009300 <digits+0x2c0>
    80001842:	fffff097          	auipc	ra,0xfffff
    80001846:	ce8080e7          	jalr	-792(ra) # 8000052a <panic>
    *pte = 0;
    8000184a:	0004b023          	sd	zero,0(s1)
  for (a = va; a < va + npages * PGSIZE; a += PGSIZE)
    8000184e:	9956                	add	s2,s2,s5
    80001850:	f5497fe3          	bgeu	s2,s4,800017ae <uvmunmap+0x36>
    if ((pte = walk(pagetable, a, 0)) == 0){
    80001854:	4601                	li	a2,0
    80001856:	85ca                	mv	a1,s2
    80001858:	854e                	mv	a0,s3
    8000185a:	fffff097          	auipc	ra,0xfffff
    8000185e:	74c080e7          	jalr	1868(ra) # 80000fa6 <walk>
    80001862:	84aa                	mv	s1,a0
    80001864:	d935                	beqz	a0,800017d8 <uvmunmap+0x60>
    if ((*pte & PTE_V) == 0){
    80001866:	611c                	ld	a5,0(a0)
    80001868:	0017f713          	andi	a4,a5,1
    8000186c:	df35                	beqz	a4,800017e8 <uvmunmap+0x70>
    if (PTE_FLAGS(*pte) == PTE_V)
    8000186e:	3ff7f713          	andi	a4,a5,1023
    80001872:	fd7704e3          	beq	a4,s7,8000183a <uvmunmap+0xc2>
    if (do_free)
    80001876:	fc0b0ae3          	beqz	s6,8000184a <uvmunmap+0xd2>
      uint64 pa = PTE2PA(*pte);
    8000187a:	83a9                	srli	a5,a5,0xa
      kfree((void *)pa);
    8000187c:	00c79513          	slli	a0,a5,0xc
    80001880:	fffff097          	auipc	ra,0xfffff
    80001884:	156080e7          	jalr	342(ra) # 800009d6 <kfree>
      if (myproc()->pid > 2 && pagetable == myproc()->pagetable)
    80001888:	00000097          	auipc	ra,0x0
    8000188c:	4aa080e7          	jalr	1194(ra) # 80001d32 <myproc>
    80001890:	591c                	lw	a5,48(a0)
    80001892:	fafc5ce3          	bge	s8,a5,8000184a <uvmunmap+0xd2>
    80001896:	00000097          	auipc	ra,0x0
    8000189a:	49c080e7          	jalr	1180(ra) # 80001d32 <myproc>
    8000189e:	693c                	ld	a5,80(a0)
    800018a0:	fb3795e3          	bne	a5,s3,8000184a <uvmunmap+0xd2>
        if (remove_page_from_physical_memory(a) >= 0)
    800018a4:	854a                	mv	a0,s2
    800018a6:	00000097          	auipc	ra,0x0
    800018aa:	e02080e7          	jalr	-510(ra) # 800016a8 <remove_page_from_physical_memory>
    800018ae:	f8054ee3          	bltz	a0,8000184a <uvmunmap+0xd2>
          myproc()->physical_pages_num--;
    800018b2:	00000097          	auipc	ra,0x0
    800018b6:	480080e7          	jalr	1152(ra) # 80001d32 <myproc>
    800018ba:	17052783          	lw	a5,368(a0)
    800018be:	37fd                	addiw	a5,a5,-1
    800018c0:	16f52823          	sw	a5,368(a0)
          myproc()->total_pages_num--;
    800018c4:	00000097          	auipc	ra,0x0
    800018c8:	46e080e7          	jalr	1134(ra) # 80001d32 <myproc>
    800018cc:	17452783          	lw	a5,372(a0)
    800018d0:	37fd                	addiw	a5,a5,-1
    800018d2:	16f52a23          	sw	a5,372(a0)
    800018d6:	bf95                	j	8000184a <uvmunmap+0xd2>

00000000800018d8 <uvmdealloc>:
{
    800018d8:	1101                	addi	sp,sp,-32
    800018da:	ec06                	sd	ra,24(sp)
    800018dc:	e822                	sd	s0,16(sp)
    800018de:	e426                	sd	s1,8(sp)
    800018e0:	1000                	addi	s0,sp,32
    return oldsz;
    800018e2:	84ae                	mv	s1,a1
  if (newsz >= oldsz)
    800018e4:	00b67d63          	bgeu	a2,a1,800018fe <uvmdealloc+0x26>
    800018e8:	84b2                	mv	s1,a2
  if (PGROUNDUP(newsz) < PGROUNDUP(oldsz))
    800018ea:	6785                	lui	a5,0x1
    800018ec:	17fd                	addi	a5,a5,-1
    800018ee:	00f60733          	add	a4,a2,a5
    800018f2:	767d                	lui	a2,0xfffff
    800018f4:	8f71                	and	a4,a4,a2
    800018f6:	97ae                	add	a5,a5,a1
    800018f8:	8ff1                	and	a5,a5,a2
    800018fa:	00f76863          	bltu	a4,a5,8000190a <uvmdealloc+0x32>
}
    800018fe:	8526                	mv	a0,s1
    80001900:	60e2                	ld	ra,24(sp)
    80001902:	6442                	ld	s0,16(sp)
    80001904:	64a2                	ld	s1,8(sp)
    80001906:	6105                	addi	sp,sp,32
    80001908:	8082                	ret
    int npages = (PGROUNDUP(oldsz) - PGROUNDUP(newsz)) / PGSIZE;
    8000190a:	8f99                	sub	a5,a5,a4
    8000190c:	83b1                	srli	a5,a5,0xc
    uvmunmap(pagetable, PGROUNDUP(newsz), npages, 1);
    8000190e:	4685                	li	a3,1
    80001910:	0007861b          	sext.w	a2,a5
    80001914:	85ba                	mv	a1,a4
    80001916:	00000097          	auipc	ra,0x0
    8000191a:	e62080e7          	jalr	-414(ra) # 80001778 <uvmunmap>
    8000191e:	b7c5                	j	800018fe <uvmdealloc+0x26>

0000000080001920 <uvmalloc>:
  if (newsz < oldsz)
    80001920:	16b66463          	bltu	a2,a1,80001a88 <uvmalloc+0x168>
{
    80001924:	715d                	addi	sp,sp,-80
    80001926:	e486                	sd	ra,72(sp)
    80001928:	e0a2                	sd	s0,64(sp)
    8000192a:	fc26                	sd	s1,56(sp)
    8000192c:	f84a                	sd	s2,48(sp)
    8000192e:	f44e                	sd	s3,40(sp)
    80001930:	f052                	sd	s4,32(sp)
    80001932:	ec56                	sd	s5,24(sp)
    80001934:	e85a                	sd	s6,16(sp)
    80001936:	e45e                	sd	s7,8(sp)
    80001938:	e062                	sd	s8,0(sp)
    8000193a:	0880                	addi	s0,sp,80
    8000193c:	8b2a                	mv	s6,a0
    8000193e:	8ab2                	mv	s5,a2
  oldsz = PGROUNDUP(oldsz);
    80001940:	6b85                	lui	s7,0x1
    80001942:	1bfd                	addi	s7,s7,-1
    80001944:	95de                	add	a1,a1,s7
    80001946:	7bfd                	lui	s7,0xfffff
    80001948:	0175fbb3          	and	s7,a1,s7
  for (a = oldsz; a < newsz; a += PGSIZE)
    8000194c:	14cbf063          	bgeu	s7,a2,80001a8c <uvmalloc+0x16c>
    80001950:	89de                	mv	s3,s7
    if (p->pid > 2)
    80001952:	4a09                	li	s4,2
      if (p->total_pages_num >= MAX_TOTAL_PAGES)
    80001954:	4c7d                	li	s8,31
      while (p->physical_pages_num >= MAX_PSYC_PAGES)
    80001956:	493d                	li	s2,15
    80001958:	a8a5                	j	800019d0 <uvmalloc+0xb0>
        panic("uvmalloc: proc out of space!");
    8000195a:	00008517          	auipc	a0,0x8
    8000195e:	9be50513          	addi	a0,a0,-1602 # 80009318 <digits+0x2d8>
    80001962:	fffff097          	auipc	ra,0xfffff
    80001966:	bc8080e7          	jalr	-1080(ra) # 8000052a <panic>
          printf("panic recieved for pid=%d\n",p->pid);
    8000196a:	588c                	lw	a1,48(s1)
    8000196c:	00008517          	auipc	a0,0x8
    80001970:	9cc50513          	addi	a0,a0,-1588 # 80009338 <digits+0x2f8>
    80001974:	fffff097          	auipc	ra,0xfffff
    80001978:	c00080e7          	jalr	-1024(ra) # 80000574 <printf>
          panic("uvmalloc: did not find the page to swap out!");
    8000197c:	00008517          	auipc	a0,0x8
    80001980:	9dc50513          	addi	a0,a0,-1572 # 80009358 <digits+0x318>
    80001984:	fffff097          	auipc	ra,0xfffff
    80001988:	ba6080e7          	jalr	-1114(ra) # 8000052a <panic>
    mem = kalloc();
    8000198c:	fffff097          	auipc	ra,0xfffff
    80001990:	146080e7          	jalr	326(ra) # 80000ad2 <kalloc>
    80001994:	84aa                	mv	s1,a0
    if (mem == 0)
    80001996:	c549                	beqz	a0,80001a20 <uvmalloc+0x100>
    memset(mem, 0, PGSIZE);
    80001998:	6605                	lui	a2,0x1
    8000199a:	4581                	li	a1,0
    8000199c:	fffff097          	auipc	ra,0xfffff
    800019a0:	322080e7          	jalr	802(ra) # 80000cbe <memset>
    if (mappages(pagetable, a, PGSIZE, (uint64)mem, PTE_W | PTE_X | PTE_R | PTE_U) != 0)
    800019a4:	4779                	li	a4,30
    800019a6:	86a6                	mv	a3,s1
    800019a8:	6605                	lui	a2,0x1
    800019aa:	85ce                	mv	a1,s3
    800019ac:	855a                	mv	a0,s6
    800019ae:	fffff097          	auipc	ra,0xfffff
    800019b2:	70c080e7          	jalr	1804(ra) # 800010ba <mappages>
    800019b6:	e949                	bnez	a0,80001a48 <uvmalloc+0x128>
    struct proc *p2 = myproc();
    800019b8:	00000097          	auipc	ra,0x0
    800019bc:	37a080e7          	jalr	890(ra) # 80001d32 <myproc>
    800019c0:	84aa                	mv	s1,a0
    if (p2->pid > 2)
    800019c2:	591c                	lw	a5,48(a0)
    800019c4:	0afa4063          	blt	s4,a5,80001a64 <uvmalloc+0x144>
  for (a = oldsz; a < newsz; a += PGSIZE)
    800019c8:	6785                	lui	a5,0x1
    800019ca:	99be                	add	s3,s3,a5
    800019cc:	0b59fc63          	bgeu	s3,s5,80001a84 <uvmalloc+0x164>
    struct proc *p = myproc();
    800019d0:	00000097          	auipc	ra,0x0
    800019d4:	362080e7          	jalr	866(ra) # 80001d32 <myproc>
    800019d8:	84aa                	mv	s1,a0
    if (p->pid > 2)
    800019da:	591c                	lw	a5,48(a0)
    800019dc:	fafa58e3          	bge	s4,a5,8000198c <uvmalloc+0x6c>
      if (p->total_pages_num >= MAX_TOTAL_PAGES)
    800019e0:	17452783          	lw	a5,372(a0)
    800019e4:	f6fc4be3          	blt	s8,a5,8000195a <uvmalloc+0x3a>
      while (p->physical_pages_num >= MAX_PSYC_PAGES)
    800019e8:	17052783          	lw	a5,368(a0)
    800019ec:	faf950e3          	bge	s2,a5,8000198c <uvmalloc+0x6c>
        int i = get_next_page_to_swap_out();
    800019f0:	00001097          	auipc	ra,0x1
    800019f4:	4d8080e7          	jalr	1240(ra) # 80002ec8 <get_next_page_to_swap_out>
        if (i < 0 || i >= MAX_PSYC_PAGES){
    800019f8:	0005079b          	sext.w	a5,a0
    800019fc:	f6f967e3          	bltu	s2,a5,8000196a <uvmalloc+0x4a>
        uint64 rva = p->pages_physc_info.pages[i].va;
    80001a00:	00151793          	slli	a5,a0,0x1
    80001a04:	97aa                	add	a5,a5,a0
    80001a06:	078e                	slli	a5,a5,0x3
    80001a08:	97a6                	add	a5,a5,s1
        page_out(rva);
    80001a0a:	3087b503          	ld	a0,776(a5) # 1308 <_entry-0x7fffecf8>
    80001a0e:	00001097          	auipc	ra,0x1
    80001a12:	d76080e7          	jalr	-650(ra) # 80002784 <page_out>
      while (p->physical_pages_num >= MAX_PSYC_PAGES)
    80001a16:	1704a783          	lw	a5,368(s1)
    80001a1a:	fcf94be3          	blt	s2,a5,800019f0 <uvmalloc+0xd0>
    80001a1e:	b7bd                	j	8000198c <uvmalloc+0x6c>
      uvmdealloc(pagetable, a, oldsz);
    80001a20:	865e                	mv	a2,s7
    80001a22:	85ce                	mv	a1,s3
    80001a24:	855a                	mv	a0,s6
    80001a26:	00000097          	auipc	ra,0x0
    80001a2a:	eb2080e7          	jalr	-334(ra) # 800018d8 <uvmdealloc>
      return 0;
    80001a2e:	4501                	li	a0,0
}
    80001a30:	60a6                	ld	ra,72(sp)
    80001a32:	6406                	ld	s0,64(sp)
    80001a34:	74e2                	ld	s1,56(sp)
    80001a36:	7942                	ld	s2,48(sp)
    80001a38:	79a2                	ld	s3,40(sp)
    80001a3a:	7a02                	ld	s4,32(sp)
    80001a3c:	6ae2                	ld	s5,24(sp)
    80001a3e:	6b42                	ld	s6,16(sp)
    80001a40:	6ba2                	ld	s7,8(sp)
    80001a42:	6c02                	ld	s8,0(sp)
    80001a44:	6161                	addi	sp,sp,80
    80001a46:	8082                	ret
      kfree(mem);
    80001a48:	8526                	mv	a0,s1
    80001a4a:	fffff097          	auipc	ra,0xfffff
    80001a4e:	f8c080e7          	jalr	-116(ra) # 800009d6 <kfree>
      uvmdealloc(pagetable, a, oldsz);
    80001a52:	865e                	mv	a2,s7
    80001a54:	85ce                	mv	a1,s3
    80001a56:	855a                	mv	a0,s6
    80001a58:	00000097          	auipc	ra,0x0
    80001a5c:	e80080e7          	jalr	-384(ra) # 800018d8 <uvmdealloc>
      return 0;
    80001a60:	4501                	li	a0,0
    80001a62:	b7f9                	j	80001a30 <uvmalloc+0x110>
      insert_page_to_physical_memory(a);
    80001a64:	854e                	mv	a0,s3
    80001a66:	00000097          	auipc	ra,0x0
    80001a6a:	b98080e7          	jalr	-1128(ra) # 800015fe <insert_page_to_physical_memory>
      p2->total_pages_num++;
    80001a6e:	1744a783          	lw	a5,372(s1)
    80001a72:	2785                	addiw	a5,a5,1
    80001a74:	16f4aa23          	sw	a5,372(s1)
      p2->physical_pages_num++;
    80001a78:	1704a783          	lw	a5,368(s1)
    80001a7c:	2785                	addiw	a5,a5,1
    80001a7e:	16f4a823          	sw	a5,368(s1)
    80001a82:	b799                	j	800019c8 <uvmalloc+0xa8>
  return newsz;
    80001a84:	8556                	mv	a0,s5
    80001a86:	b76d                	j	80001a30 <uvmalloc+0x110>
    return oldsz;
    80001a88:	852e                	mv	a0,a1
}
    80001a8a:	8082                	ret
  return newsz;
    80001a8c:	8532                	mv	a0,a2
    80001a8e:	b74d                	j	80001a30 <uvmalloc+0x110>

0000000080001a90 <uvmfree>:
{
    80001a90:	1101                	addi	sp,sp,-32
    80001a92:	ec06                	sd	ra,24(sp)
    80001a94:	e822                	sd	s0,16(sp)
    80001a96:	e426                	sd	s1,8(sp)
    80001a98:	1000                	addi	s0,sp,32
    80001a9a:	84aa                	mv	s1,a0
  if (sz > 0)
    80001a9c:	e999                	bnez	a1,80001ab2 <uvmfree+0x22>
  freewalk(pagetable);
    80001a9e:	8526                	mv	a0,s1
    80001aa0:	00000097          	auipc	ra,0x0
    80001aa4:	86e080e7          	jalr	-1938(ra) # 8000130e <freewalk>
}
    80001aa8:	60e2                	ld	ra,24(sp)
    80001aaa:	6442                	ld	s0,16(sp)
    80001aac:	64a2                	ld	s1,8(sp)
    80001aae:	6105                	addi	sp,sp,32
    80001ab0:	8082                	ret
    uvmunmap(pagetable, 0, PGROUNDUP(sz) / PGSIZE, 1);
    80001ab2:	6605                	lui	a2,0x1
    80001ab4:	167d                	addi	a2,a2,-1
    80001ab6:	962e                	add	a2,a2,a1
    80001ab8:	4685                	li	a3,1
    80001aba:	8231                	srli	a2,a2,0xc
    80001abc:	4581                	li	a1,0
    80001abe:	00000097          	auipc	ra,0x0
    80001ac2:	cba080e7          	jalr	-838(ra) # 80001778 <uvmunmap>
    80001ac6:	bfe1                	j	80001a9e <uvmfree+0xe>

0000000080001ac8 <uvmcopy>:
  for (i = 0; i < sz; i += PGSIZE)
    80001ac8:	ca65                	beqz	a2,80001bb8 <uvmcopy+0xf0>
{
    80001aca:	715d                	addi	sp,sp,-80
    80001acc:	e486                	sd	ra,72(sp)
    80001ace:	e0a2                	sd	s0,64(sp)
    80001ad0:	fc26                	sd	s1,56(sp)
    80001ad2:	f84a                	sd	s2,48(sp)
    80001ad4:	f44e                	sd	s3,40(sp)
    80001ad6:	f052                	sd	s4,32(sp)
    80001ad8:	ec56                	sd	s5,24(sp)
    80001ada:	e85a                	sd	s6,16(sp)
    80001adc:	e45e                	sd	s7,8(sp)
    80001ade:	0880                	addi	s0,sp,80
    80001ae0:	8aaa                	mv	s5,a0
    80001ae2:	8a2e                	mv	s4,a1
    80001ae4:	89b2                	mv	s3,a2
  for (i = 0; i < sz; i += PGSIZE)
    80001ae6:	4901                	li	s2,0
    80001ae8:	a08d                	j	80001b4a <uvmcopy+0x82>
      panic("uvmcopy: pte should exist");
    80001aea:	00008517          	auipc	a0,0x8
    80001aee:	89e50513          	addi	a0,a0,-1890 # 80009388 <digits+0x348>
    80001af2:	fffff097          	auipc	ra,0xfffff
    80001af6:	a38080e7          	jalr	-1480(ra) # 8000052a <panic>
        panic("uvmcopy: page not present");
    80001afa:	00008517          	auipc	a0,0x8
    80001afe:	8ae50513          	addi	a0,a0,-1874 # 800093a8 <digits+0x368>
    80001b02:	fffff097          	auipc	ra,0xfffff
    80001b06:	a28080e7          	jalr	-1496(ra) # 8000052a <panic>
    pa = PTE2PA(*pte);
    80001b0a:	00a75593          	srli	a1,a4,0xa
    80001b0e:	00c59b93          	slli	s7,a1,0xc
    flags = PTE_FLAGS(*pte);
    80001b12:	3ff77493          	andi	s1,a4,1023
    if ((mem = kalloc()) == 0)
    80001b16:	fffff097          	auipc	ra,0xfffff
    80001b1a:	fbc080e7          	jalr	-68(ra) # 80000ad2 <kalloc>
    80001b1e:	8b2a                	mv	s6,a0
    80001b20:	c52d                	beqz	a0,80001b8a <uvmcopy+0xc2>
    memmove(mem, (char *)pa, PGSIZE);
    80001b22:	6605                	lui	a2,0x1
    80001b24:	85de                	mv	a1,s7
    80001b26:	fffff097          	auipc	ra,0xfffff
    80001b2a:	1f4080e7          	jalr	500(ra) # 80000d1a <memmove>
    if (mappages(new, i, PGSIZE, (uint64)mem, flags) != 0)
    80001b2e:	8726                	mv	a4,s1
    80001b30:	86da                	mv	a3,s6
    80001b32:	6605                	lui	a2,0x1
    80001b34:	85ca                	mv	a1,s2
    80001b36:	8552                	mv	a0,s4
    80001b38:	fffff097          	auipc	ra,0xfffff
    80001b3c:	582080e7          	jalr	1410(ra) # 800010ba <mappages>
    80001b40:	e121                	bnez	a0,80001b80 <uvmcopy+0xb8>
  for (i = 0; i < sz; i += PGSIZE)
    80001b42:	6785                	lui	a5,0x1
    80001b44:	993e                	add	s2,s2,a5
    80001b46:	05397d63          	bgeu	s2,s3,80001ba0 <uvmcopy+0xd8>
    if ((pte = walk(old, i, 0)) == 0){
    80001b4a:	4601                	li	a2,0
    80001b4c:	85ca                	mv	a1,s2
    80001b4e:	8556                	mv	a0,s5
    80001b50:	fffff097          	auipc	ra,0xfffff
    80001b54:	456080e7          	jalr	1110(ra) # 80000fa6 <walk>
    80001b58:	84aa                	mv	s1,a0
    80001b5a:	d941                	beqz	a0,80001aea <uvmcopy+0x22>
    if ((*pte & PTE_V) == 0){
    80001b5c:	6118                	ld	a4,0(a0)
    80001b5e:	00177793          	andi	a5,a4,1
    80001b62:	f7c5                	bnez	a5,80001b0a <uvmcopy+0x42>
      if(!(*pte & PTE_PG))
    80001b64:	20077713          	andi	a4,a4,512
    80001b68:	db49                	beqz	a4,80001afa <uvmcopy+0x32>
      if((np_pte = walk(new, i, 1)) == 0)
    80001b6a:	4605                	li	a2,1
    80001b6c:	85ca                	mv	a1,s2
    80001b6e:	8552                	mv	a0,s4
    80001b70:	fffff097          	auipc	ra,0xfffff
    80001b74:	436080e7          	jalr	1078(ra) # 80000fa6 <walk>
    80001b78:	c131                	beqz	a0,80001bbc <uvmcopy+0xf4>
      *np_pte = *pte; 
    80001b7a:	609c                	ld	a5,0(s1)
    80001b7c:	e11c                	sd	a5,0(a0)
      continue;
    80001b7e:	b7d1                	j	80001b42 <uvmcopy+0x7a>
      kfree(mem);
    80001b80:	855a                	mv	a0,s6
    80001b82:	fffff097          	auipc	ra,0xfffff
    80001b86:	e54080e7          	jalr	-428(ra) # 800009d6 <kfree>
  uvmunmap(new, 0, i / PGSIZE, 1);
    80001b8a:	4685                	li	a3,1
    80001b8c:	00c95613          	srli	a2,s2,0xc
    80001b90:	4581                	li	a1,0
    80001b92:	8552                	mv	a0,s4
    80001b94:	00000097          	auipc	ra,0x0
    80001b98:	be4080e7          	jalr	-1052(ra) # 80001778 <uvmunmap>
  return -1;
    80001b9c:	557d                	li	a0,-1
    80001b9e:	a011                	j	80001ba2 <uvmcopy+0xda>
  return 0;
    80001ba0:	4501                	li	a0,0
}
    80001ba2:	60a6                	ld	ra,72(sp)
    80001ba4:	6406                	ld	s0,64(sp)
    80001ba6:	74e2                	ld	s1,56(sp)
    80001ba8:	7942                	ld	s2,48(sp)
    80001baa:	79a2                	ld	s3,40(sp)
    80001bac:	7a02                	ld	s4,32(sp)
    80001bae:	6ae2                	ld	s5,24(sp)
    80001bb0:	6b42                	ld	s6,16(sp)
    80001bb2:	6ba2                	ld	s7,8(sp)
    80001bb4:	6161                	addi	sp,sp,80
    80001bb6:	8082                	ret
  return 0;
    80001bb8:	4501                	li	a0,0
}
    80001bba:	8082                	ret
        return -1;
    80001bbc:	557d                	li	a0,-1
    80001bbe:	b7d5                	j	80001ba2 <uvmcopy+0xda>

0000000080001bc0 <proc_mapstacks>:

// Allocate a page for each process's kernel stack.
// Map it high in memory, followed by an invalid
// guard page.
void proc_mapstacks(pagetable_t kpgtbl)
{
    80001bc0:	7139                	addi	sp,sp,-64
    80001bc2:	fc06                	sd	ra,56(sp)
    80001bc4:	f822                	sd	s0,48(sp)
    80001bc6:	f426                	sd	s1,40(sp)
    80001bc8:	f04a                	sd	s2,32(sp)
    80001bca:	ec4e                	sd	s3,24(sp)
    80001bcc:	e852                	sd	s4,16(sp)
    80001bce:	e456                	sd	s5,8(sp)
    80001bd0:	e05a                	sd	s6,0(sp)
    80001bd2:	0080                	addi	s0,sp,64
    80001bd4:	89aa                	mv	s3,a0
  struct proc *p;

  for (p = proc; p < &proc[NPROC]; p++)
    80001bd6:	00011497          	auipc	s1,0x11
    80001bda:	afa48493          	addi	s1,s1,-1286 # 800126d0 <proc>
  {
    char *pa = kalloc();
    if (pa == 0)
      panic("kalloc");
    uint64 va = KSTACK((int)(p - proc));
    80001bde:	8b26                	mv	s6,s1
    80001be0:	00007a97          	auipc	s5,0x7
    80001be4:	420a8a93          	addi	s5,s5,1056 # 80009000 <etext>
    80001be8:	04000937          	lui	s2,0x4000
    80001bec:	197d                	addi	s2,s2,-1
    80001bee:	0932                	slli	s2,s2,0xc
  for (p = proc; p < &proc[NPROC]; p++)
    80001bf0:	00023a17          	auipc	s4,0x23
    80001bf4:	ee0a0a13          	addi	s4,s4,-288 # 80024ad0 <tickslock>
    char *pa = kalloc();
    80001bf8:	fffff097          	auipc	ra,0xfffff
    80001bfc:	eda080e7          	jalr	-294(ra) # 80000ad2 <kalloc>
    80001c00:	862a                	mv	a2,a0
    if (pa == 0)
    80001c02:	c131                	beqz	a0,80001c46 <proc_mapstacks+0x86>
    uint64 va = KSTACK((int)(p - proc));
    80001c04:	416485b3          	sub	a1,s1,s6
    80001c08:	8591                	srai	a1,a1,0x4
    80001c0a:	000ab783          	ld	a5,0(s5)
    80001c0e:	02f585b3          	mul	a1,a1,a5
    80001c12:	2585                	addiw	a1,a1,1
    80001c14:	00d5959b          	slliw	a1,a1,0xd
    kvmmap(kpgtbl, va, (uint64)pa, PGSIZE, PTE_R | PTE_W);
    80001c18:	4719                	li	a4,6
    80001c1a:	6685                	lui	a3,0x1
    80001c1c:	40b905b3          	sub	a1,s2,a1
    80001c20:	854e                	mv	a0,s3
    80001c22:	fffff097          	auipc	ra,0xfffff
    80001c26:	526080e7          	jalr	1318(ra) # 80001148 <kvmmap>
  for (p = proc; p < &proc[NPROC]; p++)
    80001c2a:	49048493          	addi	s1,s1,1168
    80001c2e:	fd4495e3          	bne	s1,s4,80001bf8 <proc_mapstacks+0x38>
  }
}
    80001c32:	70e2                	ld	ra,56(sp)
    80001c34:	7442                	ld	s0,48(sp)
    80001c36:	74a2                	ld	s1,40(sp)
    80001c38:	7902                	ld	s2,32(sp)
    80001c3a:	69e2                	ld	s3,24(sp)
    80001c3c:	6a42                	ld	s4,16(sp)
    80001c3e:	6aa2                	ld	s5,8(sp)
    80001c40:	6b02                	ld	s6,0(sp)
    80001c42:	6121                	addi	sp,sp,64
    80001c44:	8082                	ret
      panic("kalloc");
    80001c46:	00007517          	auipc	a0,0x7
    80001c4a:	78250513          	addi	a0,a0,1922 # 800093c8 <digits+0x388>
    80001c4e:	fffff097          	auipc	ra,0xfffff
    80001c52:	8dc080e7          	jalr	-1828(ra) # 8000052a <panic>

0000000080001c56 <procinit>:

// initialize the proc table at boot time.
void procinit(void)
{
    80001c56:	7139                	addi	sp,sp,-64
    80001c58:	fc06                	sd	ra,56(sp)
    80001c5a:	f822                	sd	s0,48(sp)
    80001c5c:	f426                	sd	s1,40(sp)
    80001c5e:	f04a                	sd	s2,32(sp)
    80001c60:	ec4e                	sd	s3,24(sp)
    80001c62:	e852                	sd	s4,16(sp)
    80001c64:	e456                	sd	s5,8(sp)
    80001c66:	e05a                	sd	s6,0(sp)
    80001c68:	0080                	addi	s0,sp,64
  struct proc *p;

  initlock(&pid_lock, "nextpid");
    80001c6a:	00007597          	auipc	a1,0x7
    80001c6e:	76658593          	addi	a1,a1,1894 # 800093d0 <digits+0x390>
    80001c72:	00010517          	auipc	a0,0x10
    80001c76:	62e50513          	addi	a0,a0,1582 # 800122a0 <pid_lock>
    80001c7a:	fffff097          	auipc	ra,0xfffff
    80001c7e:	eb8080e7          	jalr	-328(ra) # 80000b32 <initlock>
  initlock(&wait_lock, "wait_lock");
    80001c82:	00007597          	auipc	a1,0x7
    80001c86:	75658593          	addi	a1,a1,1878 # 800093d8 <digits+0x398>
    80001c8a:	00010517          	auipc	a0,0x10
    80001c8e:	62e50513          	addi	a0,a0,1582 # 800122b8 <wait_lock>
    80001c92:	fffff097          	auipc	ra,0xfffff
    80001c96:	ea0080e7          	jalr	-352(ra) # 80000b32 <initlock>
  for (p = proc; p < &proc[NPROC]; p++)
    80001c9a:	00011497          	auipc	s1,0x11
    80001c9e:	a3648493          	addi	s1,s1,-1482 # 800126d0 <proc>
  {
    initlock(&p->lock, "proc");
    80001ca2:	00007b17          	auipc	s6,0x7
    80001ca6:	746b0b13          	addi	s6,s6,1862 # 800093e8 <digits+0x3a8>
    p->kstack = KSTACK((int)(p - proc));
    80001caa:	8aa6                	mv	s5,s1
    80001cac:	00007a17          	auipc	s4,0x7
    80001cb0:	354a0a13          	addi	s4,s4,852 # 80009000 <etext>
    80001cb4:	04000937          	lui	s2,0x4000
    80001cb8:	197d                	addi	s2,s2,-1
    80001cba:	0932                	slli	s2,s2,0xc
  for (p = proc; p < &proc[NPROC]; p++)
    80001cbc:	00023997          	auipc	s3,0x23
    80001cc0:	e1498993          	addi	s3,s3,-492 # 80024ad0 <tickslock>
    initlock(&p->lock, "proc");
    80001cc4:	85da                	mv	a1,s6
    80001cc6:	8526                	mv	a0,s1
    80001cc8:	fffff097          	auipc	ra,0xfffff
    80001ccc:	e6a080e7          	jalr	-406(ra) # 80000b32 <initlock>
    p->kstack = KSTACK((int)(p - proc));
    80001cd0:	415487b3          	sub	a5,s1,s5
    80001cd4:	8791                	srai	a5,a5,0x4
    80001cd6:	000a3703          	ld	a4,0(s4)
    80001cda:	02e787b3          	mul	a5,a5,a4
    80001cde:	2785                	addiw	a5,a5,1
    80001ce0:	00d7979b          	slliw	a5,a5,0xd
    80001ce4:	40f907b3          	sub	a5,s2,a5
    80001ce8:	e0bc                	sd	a5,64(s1)
  for (p = proc; p < &proc[NPROC]; p++)
    80001cea:	49048493          	addi	s1,s1,1168
    80001cee:	fd349be3          	bne	s1,s3,80001cc4 <procinit+0x6e>
  }
}
    80001cf2:	70e2                	ld	ra,56(sp)
    80001cf4:	7442                	ld	s0,48(sp)
    80001cf6:	74a2                	ld	s1,40(sp)
    80001cf8:	7902                	ld	s2,32(sp)
    80001cfa:	69e2                	ld	s3,24(sp)
    80001cfc:	6a42                	ld	s4,16(sp)
    80001cfe:	6aa2                	ld	s5,8(sp)
    80001d00:	6b02                	ld	s6,0(sp)
    80001d02:	6121                	addi	sp,sp,64
    80001d04:	8082                	ret

0000000080001d06 <cpuid>:

// Must be called with interrupts disabled,
// to prevent race with process being moved
// to a different CPU.
int cpuid()
{
    80001d06:	1141                	addi	sp,sp,-16
    80001d08:	e422                	sd	s0,8(sp)
    80001d0a:	0800                	addi	s0,sp,16
  asm volatile("mv %0, tp" : "=r" (x) );
    80001d0c:	8512                	mv	a0,tp
  int id = r_tp();
  return id;
}
    80001d0e:	2501                	sext.w	a0,a0
    80001d10:	6422                	ld	s0,8(sp)
    80001d12:	0141                	addi	sp,sp,16
    80001d14:	8082                	ret

0000000080001d16 <mycpu>:

// Return this CPU's cpu struct.
// Interrupts must be disabled.
struct cpu *
mycpu(void)
{
    80001d16:	1141                	addi	sp,sp,-16
    80001d18:	e422                	sd	s0,8(sp)
    80001d1a:	0800                	addi	s0,sp,16
    80001d1c:	8792                	mv	a5,tp
  int id = cpuid();
  struct cpu *c = &cpus[id];
    80001d1e:	2781                	sext.w	a5,a5
    80001d20:	079e                	slli	a5,a5,0x7
  return c;
}
    80001d22:	00010517          	auipc	a0,0x10
    80001d26:	5ae50513          	addi	a0,a0,1454 # 800122d0 <cpus>
    80001d2a:	953e                	add	a0,a0,a5
    80001d2c:	6422                	ld	s0,8(sp)
    80001d2e:	0141                	addi	sp,sp,16
    80001d30:	8082                	ret

0000000080001d32 <myproc>:

// Return the current struct proc *, or zero if none.
struct proc *
myproc(void)
{
    80001d32:	1101                	addi	sp,sp,-32
    80001d34:	ec06                	sd	ra,24(sp)
    80001d36:	e822                	sd	s0,16(sp)
    80001d38:	e426                	sd	s1,8(sp)
    80001d3a:	1000                	addi	s0,sp,32
  push_off();
    80001d3c:	fffff097          	auipc	ra,0xfffff
    80001d40:	e3a080e7          	jalr	-454(ra) # 80000b76 <push_off>
    80001d44:	8792                	mv	a5,tp
  struct cpu *c = mycpu();
  struct proc *p = c->proc;
    80001d46:	2781                	sext.w	a5,a5
    80001d48:	079e                	slli	a5,a5,0x7
    80001d4a:	00010717          	auipc	a4,0x10
    80001d4e:	55670713          	addi	a4,a4,1366 # 800122a0 <pid_lock>
    80001d52:	97ba                	add	a5,a5,a4
    80001d54:	7b84                	ld	s1,48(a5)
  pop_off();
    80001d56:	fffff097          	auipc	ra,0xfffff
    80001d5a:	ec0080e7          	jalr	-320(ra) # 80000c16 <pop_off>
  return p;
}
    80001d5e:	8526                	mv	a0,s1
    80001d60:	60e2                	ld	ra,24(sp)
    80001d62:	6442                	ld	s0,16(sp)
    80001d64:	64a2                	ld	s1,8(sp)
    80001d66:	6105                	addi	sp,sp,32
    80001d68:	8082                	ret

0000000080001d6a <forkret>:
}

// A fork child's very first scheduling by scheduler()
// will swtch to forkret.
void forkret(void)
{
    80001d6a:	1141                	addi	sp,sp,-16
    80001d6c:	e406                	sd	ra,8(sp)
    80001d6e:	e022                	sd	s0,0(sp)
    80001d70:	0800                	addi	s0,sp,16
  static int first = 1;

  // Still holding p->lock from scheduler.
  release(&myproc()->lock);
    80001d72:	00000097          	auipc	ra,0x0
    80001d76:	fc0080e7          	jalr	-64(ra) # 80001d32 <myproc>
    80001d7a:	fffff097          	auipc	ra,0xfffff
    80001d7e:	efc080e7          	jalr	-260(ra) # 80000c76 <release>

  if (first)
    80001d82:	00008797          	auipc	a5,0x8
    80001d86:	f5e7a783          	lw	a5,-162(a5) # 80009ce0 <first.1>
    80001d8a:	eb89                	bnez	a5,80001d9c <forkret+0x32>
    // be run from main().
    first = 0;
    fsinit(ROOTDEV);
  }

  usertrapret();
    80001d8c:	00001097          	auipc	ra,0x1
    80001d90:	2a6080e7          	jalr	678(ra) # 80003032 <usertrapret>
}
    80001d94:	60a2                	ld	ra,8(sp)
    80001d96:	6402                	ld	s0,0(sp)
    80001d98:	0141                	addi	sp,sp,16
    80001d9a:	8082                	ret
    first = 0;
    80001d9c:	00008797          	auipc	a5,0x8
    80001da0:	f407a223          	sw	zero,-188(a5) # 80009ce0 <first.1>
    fsinit(ROOTDEV);
    80001da4:	4505                	li	a0,1
    80001da6:	00002097          	auipc	ra,0x2
    80001daa:	0d8080e7          	jalr	216(ra) # 80003e7e <fsinit>
    80001dae:	bff9                	j	80001d8c <forkret+0x22>

0000000080001db0 <allocpid>:
{
    80001db0:	1101                	addi	sp,sp,-32
    80001db2:	ec06                	sd	ra,24(sp)
    80001db4:	e822                	sd	s0,16(sp)
    80001db6:	e426                	sd	s1,8(sp)
    80001db8:	e04a                	sd	s2,0(sp)
    80001dba:	1000                	addi	s0,sp,32
  acquire(&pid_lock);
    80001dbc:	00010917          	auipc	s2,0x10
    80001dc0:	4e490913          	addi	s2,s2,1252 # 800122a0 <pid_lock>
    80001dc4:	854a                	mv	a0,s2
    80001dc6:	fffff097          	auipc	ra,0xfffff
    80001dca:	dfc080e7          	jalr	-516(ra) # 80000bc2 <acquire>
  pid = nextpid;
    80001dce:	00008797          	auipc	a5,0x8
    80001dd2:	f1678793          	addi	a5,a5,-234 # 80009ce4 <nextpid>
    80001dd6:	4384                	lw	s1,0(a5)
  nextpid = nextpid + 1;
    80001dd8:	0014871b          	addiw	a4,s1,1
    80001ddc:	c398                	sw	a4,0(a5)
  release(&pid_lock);
    80001dde:	854a                	mv	a0,s2
    80001de0:	fffff097          	auipc	ra,0xfffff
    80001de4:	e96080e7          	jalr	-362(ra) # 80000c76 <release>
}
    80001de8:	8526                	mv	a0,s1
    80001dea:	60e2                	ld	ra,24(sp)
    80001dec:	6442                	ld	s0,16(sp)
    80001dee:	64a2                	ld	s1,8(sp)
    80001df0:	6902                	ld	s2,0(sp)
    80001df2:	6105                	addi	sp,sp,32
    80001df4:	8082                	ret

0000000080001df6 <proc_pagetable>:
{
    80001df6:	1101                	addi	sp,sp,-32
    80001df8:	ec06                	sd	ra,24(sp)
    80001dfa:	e822                	sd	s0,16(sp)
    80001dfc:	e426                	sd	s1,8(sp)
    80001dfe:	e04a                	sd	s2,0(sp)
    80001e00:	1000                	addi	s0,sp,32
    80001e02:	892a                	mv	s2,a0
  pagetable = uvmcreate();
    80001e04:	fffff097          	auipc	ra,0xfffff
    80001e08:	46a080e7          	jalr	1130(ra) # 8000126e <uvmcreate>
    80001e0c:	84aa                	mv	s1,a0
  if (pagetable == 0)
    80001e0e:	c121                	beqz	a0,80001e4e <proc_pagetable+0x58>
  if (mappages(pagetable, TRAMPOLINE, PGSIZE,
    80001e10:	4729                	li	a4,10
    80001e12:	00006697          	auipc	a3,0x6
    80001e16:	1ee68693          	addi	a3,a3,494 # 80008000 <_trampoline>
    80001e1a:	6605                	lui	a2,0x1
    80001e1c:	040005b7          	lui	a1,0x4000
    80001e20:	15fd                	addi	a1,a1,-1
    80001e22:	05b2                	slli	a1,a1,0xc
    80001e24:	fffff097          	auipc	ra,0xfffff
    80001e28:	296080e7          	jalr	662(ra) # 800010ba <mappages>
    80001e2c:	02054863          	bltz	a0,80001e5c <proc_pagetable+0x66>
  if (mappages(pagetable, TRAPFRAME, PGSIZE,
    80001e30:	4719                	li	a4,6
    80001e32:	05893683          	ld	a3,88(s2)
    80001e36:	6605                	lui	a2,0x1
    80001e38:	020005b7          	lui	a1,0x2000
    80001e3c:	15fd                	addi	a1,a1,-1
    80001e3e:	05b6                	slli	a1,a1,0xd
    80001e40:	8526                	mv	a0,s1
    80001e42:	fffff097          	auipc	ra,0xfffff
    80001e46:	278080e7          	jalr	632(ra) # 800010ba <mappages>
    80001e4a:	02054163          	bltz	a0,80001e6c <proc_pagetable+0x76>
}
    80001e4e:	8526                	mv	a0,s1
    80001e50:	60e2                	ld	ra,24(sp)
    80001e52:	6442                	ld	s0,16(sp)
    80001e54:	64a2                	ld	s1,8(sp)
    80001e56:	6902                	ld	s2,0(sp)
    80001e58:	6105                	addi	sp,sp,32
    80001e5a:	8082                	ret
    uvmfree(pagetable, 0);
    80001e5c:	4581                	li	a1,0
    80001e5e:	8526                	mv	a0,s1
    80001e60:	00000097          	auipc	ra,0x0
    80001e64:	c30080e7          	jalr	-976(ra) # 80001a90 <uvmfree>
    return 0;
    80001e68:	4481                	li	s1,0
    80001e6a:	b7d5                	j	80001e4e <proc_pagetable+0x58>
    uvmunmap(pagetable, TRAMPOLINE, 1, 0);
    80001e6c:	4681                	li	a3,0
    80001e6e:	4605                	li	a2,1
    80001e70:	040005b7          	lui	a1,0x4000
    80001e74:	15fd                	addi	a1,a1,-1
    80001e76:	05b2                	slli	a1,a1,0xc
    80001e78:	8526                	mv	a0,s1
    80001e7a:	00000097          	auipc	ra,0x0
    80001e7e:	8fe080e7          	jalr	-1794(ra) # 80001778 <uvmunmap>
    uvmfree(pagetable, 0);
    80001e82:	4581                	li	a1,0
    80001e84:	8526                	mv	a0,s1
    80001e86:	00000097          	auipc	ra,0x0
    80001e8a:	c0a080e7          	jalr	-1014(ra) # 80001a90 <uvmfree>
    return 0;
    80001e8e:	4481                	li	s1,0
    80001e90:	bf7d                	j	80001e4e <proc_pagetable+0x58>

0000000080001e92 <proc_freepagetable>:
{
    80001e92:	1101                	addi	sp,sp,-32
    80001e94:	ec06                	sd	ra,24(sp)
    80001e96:	e822                	sd	s0,16(sp)
    80001e98:	e426                	sd	s1,8(sp)
    80001e9a:	e04a                	sd	s2,0(sp)
    80001e9c:	1000                	addi	s0,sp,32
    80001e9e:	84aa                	mv	s1,a0
    80001ea0:	892e                	mv	s2,a1
  uvmunmap(pagetable, TRAMPOLINE, 1, 0);
    80001ea2:	4681                	li	a3,0
    80001ea4:	4605                	li	a2,1
    80001ea6:	040005b7          	lui	a1,0x4000
    80001eaa:	15fd                	addi	a1,a1,-1
    80001eac:	05b2                	slli	a1,a1,0xc
    80001eae:	00000097          	auipc	ra,0x0
    80001eb2:	8ca080e7          	jalr	-1846(ra) # 80001778 <uvmunmap>
  uvmunmap(pagetable, TRAPFRAME, 1, 0);
    80001eb6:	4681                	li	a3,0
    80001eb8:	4605                	li	a2,1
    80001eba:	020005b7          	lui	a1,0x2000
    80001ebe:	15fd                	addi	a1,a1,-1
    80001ec0:	05b6                	slli	a1,a1,0xd
    80001ec2:	8526                	mv	a0,s1
    80001ec4:	00000097          	auipc	ra,0x0
    80001ec8:	8b4080e7          	jalr	-1868(ra) # 80001778 <uvmunmap>
  uvmfree(pagetable, sz);
    80001ecc:	85ca                	mv	a1,s2
    80001ece:	8526                	mv	a0,s1
    80001ed0:	00000097          	auipc	ra,0x0
    80001ed4:	bc0080e7          	jalr	-1088(ra) # 80001a90 <uvmfree>
}
    80001ed8:	60e2                	ld	ra,24(sp)
    80001eda:	6442                	ld	s0,16(sp)
    80001edc:	64a2                	ld	s1,8(sp)
    80001ede:	6902                	ld	s2,0(sp)
    80001ee0:	6105                	addi	sp,sp,32
    80001ee2:	8082                	ret

0000000080001ee4 <freeproc>:
{
    80001ee4:	1101                	addi	sp,sp,-32
    80001ee6:	ec06                	sd	ra,24(sp)
    80001ee8:	e822                	sd	s0,16(sp)
    80001eea:	e426                	sd	s1,8(sp)
    80001eec:	1000                	addi	s0,sp,32
    80001eee:	84aa                	mv	s1,a0
  if (p->trapframe)
    80001ef0:	6d28                	ld	a0,88(a0)
    80001ef2:	c509                	beqz	a0,80001efc <freeproc+0x18>
    kfree((void *)p->trapframe);
    80001ef4:	fffff097          	auipc	ra,0xfffff
    80001ef8:	ae2080e7          	jalr	-1310(ra) # 800009d6 <kfree>
  p->trapframe = 0;
    80001efc:	0404bc23          	sd	zero,88(s1)
  if (p->pagetable)
    80001f00:	68a8                	ld	a0,80(s1)
    80001f02:	c511                	beqz	a0,80001f0e <freeproc+0x2a>
    proc_freepagetable(p->pagetable, p->sz);
    80001f04:	64ac                	ld	a1,72(s1)
    80001f06:	00000097          	auipc	ra,0x0
    80001f0a:	f8c080e7          	jalr	-116(ra) # 80001e92 <proc_freepagetable>
  p->pagetable = 0;
    80001f0e:	0404b823          	sd	zero,80(s1)
  p->sz = 0;
    80001f12:	0404b423          	sd	zero,72(s1)
  p->pid = 0;
    80001f16:	0204a823          	sw	zero,48(s1)
  p->parent = 0;
    80001f1a:	0204bc23          	sd	zero,56(s1)
  p->name[0] = 0;
    80001f1e:	14048c23          	sb	zero,344(s1)
  p->chan = 0;
    80001f22:	0204b023          	sd	zero,32(s1)
  p->killed = 0;
    80001f26:	0204a423          	sw	zero,40(s1)
  p->xstate = 0;
    80001f2a:	0204a623          	sw	zero,44(s1)
  p->state = UNUSED;
    80001f2e:	0004ac23          	sw	zero,24(s1)
  p->paging_time = 0;
    80001f32:	4804b423          	sd	zero,1160(s1)
}
    80001f36:	60e2                	ld	ra,24(sp)
    80001f38:	6442                	ld	s0,16(sp)
    80001f3a:	64a2                	ld	s1,8(sp)
    80001f3c:	6105                	addi	sp,sp,32
    80001f3e:	8082                	ret

0000000080001f40 <allocproc>:
{
    80001f40:	1101                	addi	sp,sp,-32
    80001f42:	ec06                	sd	ra,24(sp)
    80001f44:	e822                	sd	s0,16(sp)
    80001f46:	e426                	sd	s1,8(sp)
    80001f48:	e04a                	sd	s2,0(sp)
    80001f4a:	1000                	addi	s0,sp,32
  for (p = proc; p < &proc[NPROC]; p++)
    80001f4c:	00010497          	auipc	s1,0x10
    80001f50:	78448493          	addi	s1,s1,1924 # 800126d0 <proc>
    80001f54:	00023917          	auipc	s2,0x23
    80001f58:	b7c90913          	addi	s2,s2,-1156 # 80024ad0 <tickslock>
    acquire(&p->lock);
    80001f5c:	8526                	mv	a0,s1
    80001f5e:	fffff097          	auipc	ra,0xfffff
    80001f62:	c64080e7          	jalr	-924(ra) # 80000bc2 <acquire>
    if (p->state == UNUSED)
    80001f66:	4c9c                	lw	a5,24(s1)
    80001f68:	cf81                	beqz	a5,80001f80 <allocproc+0x40>
      release(&p->lock);
    80001f6a:	8526                	mv	a0,s1
    80001f6c:	fffff097          	auipc	ra,0xfffff
    80001f70:	d0a080e7          	jalr	-758(ra) # 80000c76 <release>
  for (p = proc; p < &proc[NPROC]; p++)
    80001f74:	49048493          	addi	s1,s1,1168
    80001f78:	ff2492e3          	bne	s1,s2,80001f5c <allocproc+0x1c>
  return 0;
    80001f7c:	4481                	li	s1,0
    80001f7e:	a09d                	j	80001fe4 <allocproc+0xa4>
  p->pid = allocpid();
    80001f80:	00000097          	auipc	ra,0x0
    80001f84:	e30080e7          	jalr	-464(ra) # 80001db0 <allocpid>
    80001f88:	d888                	sw	a0,48(s1)
  p->state = USED;
    80001f8a:	4785                	li	a5,1
    80001f8c:	cc9c                	sw	a5,24(s1)
  if ((p->trapframe = (struct trapframe *)kalloc()) == 0)
    80001f8e:	fffff097          	auipc	ra,0xfffff
    80001f92:	b44080e7          	jalr	-1212(ra) # 80000ad2 <kalloc>
    80001f96:	892a                	mv	s2,a0
    80001f98:	eca8                	sd	a0,88(s1)
    80001f9a:	cd21                	beqz	a0,80001ff2 <allocproc+0xb2>
  p->pagetable = proc_pagetable(p);
    80001f9c:	8526                	mv	a0,s1
    80001f9e:	00000097          	auipc	ra,0x0
    80001fa2:	e58080e7          	jalr	-424(ra) # 80001df6 <proc_pagetable>
    80001fa6:	892a                	mv	s2,a0
    80001fa8:	e8a8                	sd	a0,80(s1)
  if (p->pagetable == 0)
    80001faa:	c125                	beqz	a0,8000200a <allocproc+0xca>
  memset(&p->context, 0, sizeof(p->context));
    80001fac:	07000613          	li	a2,112
    80001fb0:	4581                	li	a1,0
    80001fb2:	06048513          	addi	a0,s1,96
    80001fb6:	fffff097          	auipc	ra,0xfffff
    80001fba:	d08080e7          	jalr	-760(ra) # 80000cbe <memset>
  p->context.ra = (uint64)forkret;
    80001fbe:	00000797          	auipc	a5,0x0
    80001fc2:	dac78793          	addi	a5,a5,-596 # 80001d6a <forkret>
    80001fc6:	f0bc                	sd	a5,96(s1)
  p->context.sp = p->kstack + PGSIZE;
    80001fc8:	60bc                	ld	a5,64(s1)
    80001fca:	6705                	lui	a4,0x1
    80001fcc:	97ba                	add	a5,a5,a4
    80001fce:	f4bc                	sd	a5,104(s1)
  p->physical_pages_num = 0;
    80001fd0:	1604a823          	sw	zero,368(s1)
  p->total_pages_num = 0;
    80001fd4:	1604aa23          	sw	zero,372(s1)
  p->pages_physc_info.free_spaces = 0;
    80001fd8:	30049023          	sh	zero,768(s1)
  p->pages_swap_info.free_spaces = 0;
    80001fdc:	16049c23          	sh	zero,376(s1)
  p->paging_time = 0;
    80001fe0:	4804b423          	sd	zero,1160(s1)
}
    80001fe4:	8526                	mv	a0,s1
    80001fe6:	60e2                	ld	ra,24(sp)
    80001fe8:	6442                	ld	s0,16(sp)
    80001fea:	64a2                	ld	s1,8(sp)
    80001fec:	6902                	ld	s2,0(sp)
    80001fee:	6105                	addi	sp,sp,32
    80001ff0:	8082                	ret
    freeproc(p);
    80001ff2:	8526                	mv	a0,s1
    80001ff4:	00000097          	auipc	ra,0x0
    80001ff8:	ef0080e7          	jalr	-272(ra) # 80001ee4 <freeproc>
    release(&p->lock);
    80001ffc:	8526                	mv	a0,s1
    80001ffe:	fffff097          	auipc	ra,0xfffff
    80002002:	c78080e7          	jalr	-904(ra) # 80000c76 <release>
    return 0;
    80002006:	84ca                	mv	s1,s2
    80002008:	bff1                	j	80001fe4 <allocproc+0xa4>
    freeproc(p);
    8000200a:	8526                	mv	a0,s1
    8000200c:	00000097          	auipc	ra,0x0
    80002010:	ed8080e7          	jalr	-296(ra) # 80001ee4 <freeproc>
    release(&p->lock);
    80002014:	8526                	mv	a0,s1
    80002016:	fffff097          	auipc	ra,0xfffff
    8000201a:	c60080e7          	jalr	-928(ra) # 80000c76 <release>
    return 0;
    8000201e:	84ca                	mv	s1,s2
    80002020:	b7d1                	j	80001fe4 <allocproc+0xa4>

0000000080002022 <userinit>:
{
    80002022:	1101                	addi	sp,sp,-32
    80002024:	ec06                	sd	ra,24(sp)
    80002026:	e822                	sd	s0,16(sp)
    80002028:	e426                	sd	s1,8(sp)
    8000202a:	1000                	addi	s0,sp,32
  p = allocproc();
    8000202c:	00000097          	auipc	ra,0x0
    80002030:	f14080e7          	jalr	-236(ra) # 80001f40 <allocproc>
    80002034:	84aa                	mv	s1,a0
  initproc = p;
    80002036:	00008797          	auipc	a5,0x8
    8000203a:	fea7b923          	sd	a0,-14(a5) # 8000a028 <initproc>
  uvminit(p->pagetable, initcode, sizeof(initcode));
    8000203e:	03400613          	li	a2,52
    80002042:	00008597          	auipc	a1,0x8
    80002046:	cae58593          	addi	a1,a1,-850 # 80009cf0 <initcode>
    8000204a:	6928                	ld	a0,80(a0)
    8000204c:	fffff097          	auipc	ra,0xfffff
    80002050:	250080e7          	jalr	592(ra) # 8000129c <uvminit>
  p->sz = PGSIZE;
    80002054:	6785                	lui	a5,0x1
    80002056:	e4bc                	sd	a5,72(s1)
  p->trapframe->epc = 0;     // user program counter
    80002058:	6cb8                	ld	a4,88(s1)
    8000205a:	00073c23          	sd	zero,24(a4) # 1018 <_entry-0x7fffefe8>
  p->trapframe->sp = PGSIZE; // user stack pointer
    8000205e:	6cb8                	ld	a4,88(s1)
    80002060:	fb1c                	sd	a5,48(a4)
  safestrcpy(p->name, "initcode", sizeof(p->name));
    80002062:	4641                	li	a2,16
    80002064:	00007597          	auipc	a1,0x7
    80002068:	38c58593          	addi	a1,a1,908 # 800093f0 <digits+0x3b0>
    8000206c:	15848513          	addi	a0,s1,344
    80002070:	fffff097          	auipc	ra,0xfffff
    80002074:	da0080e7          	jalr	-608(ra) # 80000e10 <safestrcpy>
  p->cwd = namei("/");
    80002078:	00007517          	auipc	a0,0x7
    8000207c:	38850513          	addi	a0,a0,904 # 80009400 <digits+0x3c0>
    80002080:	00003097          	auipc	ra,0x3
    80002084:	82c080e7          	jalr	-2004(ra) # 800048ac <namei>
    80002088:	14a4b823          	sd	a0,336(s1)
  p->state = RUNNABLE;
    8000208c:	478d                	li	a5,3
    8000208e:	cc9c                	sw	a5,24(s1)
  release(&p->lock);
    80002090:	8526                	mv	a0,s1
    80002092:	fffff097          	auipc	ra,0xfffff
    80002096:	be4080e7          	jalr	-1052(ra) # 80000c76 <release>
}
    8000209a:	60e2                	ld	ra,24(sp)
    8000209c:	6442                	ld	s0,16(sp)
    8000209e:	64a2                	ld	s1,8(sp)
    800020a0:	6105                	addi	sp,sp,32
    800020a2:	8082                	ret

00000000800020a4 <growproc>:
{
    800020a4:	1101                	addi	sp,sp,-32
    800020a6:	ec06                	sd	ra,24(sp)
    800020a8:	e822                	sd	s0,16(sp)
    800020aa:	e426                	sd	s1,8(sp)
    800020ac:	e04a                	sd	s2,0(sp)
    800020ae:	1000                	addi	s0,sp,32
    800020b0:	84aa                	mv	s1,a0
  struct proc *p = myproc();
    800020b2:	00000097          	auipc	ra,0x0
    800020b6:	c80080e7          	jalr	-896(ra) # 80001d32 <myproc>
    800020ba:	892a                	mv	s2,a0
  sz = p->sz;
    800020bc:	652c                	ld	a1,72(a0)
    800020be:	0005861b          	sext.w	a2,a1
  if (n > 0)
    800020c2:	00904f63          	bgtz	s1,800020e0 <growproc+0x3c>
  else if (n < 0)
    800020c6:	0204cc63          	bltz	s1,800020fe <growproc+0x5a>
  p->sz = sz;
    800020ca:	1602                	slli	a2,a2,0x20
    800020cc:	9201                	srli	a2,a2,0x20
    800020ce:	04c93423          	sd	a2,72(s2)
  return 0;
    800020d2:	4501                	li	a0,0
}
    800020d4:	60e2                	ld	ra,24(sp)
    800020d6:	6442                	ld	s0,16(sp)
    800020d8:	64a2                	ld	s1,8(sp)
    800020da:	6902                	ld	s2,0(sp)
    800020dc:	6105                	addi	sp,sp,32
    800020de:	8082                	ret
    if ((sz = uvmalloc(p->pagetable, sz, sz + n)) == 0)
    800020e0:	9e25                	addw	a2,a2,s1
    800020e2:	1602                	slli	a2,a2,0x20
    800020e4:	9201                	srli	a2,a2,0x20
    800020e6:	1582                	slli	a1,a1,0x20
    800020e8:	9181                	srli	a1,a1,0x20
    800020ea:	6928                	ld	a0,80(a0)
    800020ec:	00000097          	auipc	ra,0x0
    800020f0:	834080e7          	jalr	-1996(ra) # 80001920 <uvmalloc>
    800020f4:	0005061b          	sext.w	a2,a0
    800020f8:	fa69                	bnez	a2,800020ca <growproc+0x26>
      return -1;
    800020fa:	557d                	li	a0,-1
    800020fc:	bfe1                	j	800020d4 <growproc+0x30>
    sz = uvmdealloc(p->pagetable, sz, sz + n);
    800020fe:	9e25                	addw	a2,a2,s1
    80002100:	1602                	slli	a2,a2,0x20
    80002102:	9201                	srli	a2,a2,0x20
    80002104:	1582                	slli	a1,a1,0x20
    80002106:	9181                	srli	a1,a1,0x20
    80002108:	6928                	ld	a0,80(a0)
    8000210a:	fffff097          	auipc	ra,0xfffff
    8000210e:	7ce080e7          	jalr	1998(ra) # 800018d8 <uvmdealloc>
    80002112:	0005061b          	sext.w	a2,a0
    80002116:	bf55                	j	800020ca <growproc+0x26>

0000000080002118 <sched>:
{
    80002118:	7179                	addi	sp,sp,-48
    8000211a:	f406                	sd	ra,40(sp)
    8000211c:	f022                	sd	s0,32(sp)
    8000211e:	ec26                	sd	s1,24(sp)
    80002120:	e84a                	sd	s2,16(sp)
    80002122:	e44e                	sd	s3,8(sp)
    80002124:	1800                	addi	s0,sp,48
  struct proc *p = myproc();
    80002126:	00000097          	auipc	ra,0x0
    8000212a:	c0c080e7          	jalr	-1012(ra) # 80001d32 <myproc>
    8000212e:	84aa                	mv	s1,a0
  if (!holding(&p->lock))
    80002130:	fffff097          	auipc	ra,0xfffff
    80002134:	a18080e7          	jalr	-1512(ra) # 80000b48 <holding>
    80002138:	c93d                	beqz	a0,800021ae <sched+0x96>
    8000213a:	8792                	mv	a5,tp
  if (mycpu()->noff != 1)
    8000213c:	2781                	sext.w	a5,a5
    8000213e:	079e                	slli	a5,a5,0x7
    80002140:	00010717          	auipc	a4,0x10
    80002144:	16070713          	addi	a4,a4,352 # 800122a0 <pid_lock>
    80002148:	97ba                	add	a5,a5,a4
    8000214a:	0a87a703          	lw	a4,168(a5) # 10a8 <_entry-0x7fffef58>
    8000214e:	4785                	li	a5,1
    80002150:	06f71763          	bne	a4,a5,800021be <sched+0xa6>
  if (p->state == RUNNING)
    80002154:	4c98                	lw	a4,24(s1)
    80002156:	4791                	li	a5,4
    80002158:	06f70b63          	beq	a4,a5,800021ce <sched+0xb6>
  asm volatile("csrr %0, sstatus" : "=r" (x) );
    8000215c:	100027f3          	csrr	a5,sstatus
  return (x & SSTATUS_SIE) != 0;
    80002160:	8b89                	andi	a5,a5,2
  if (intr_get())
    80002162:	efb5                	bnez	a5,800021de <sched+0xc6>
  asm volatile("mv %0, tp" : "=r" (x) );
    80002164:	8792                	mv	a5,tp
  intena = mycpu()->intena;
    80002166:	00010917          	auipc	s2,0x10
    8000216a:	13a90913          	addi	s2,s2,314 # 800122a0 <pid_lock>
    8000216e:	2781                	sext.w	a5,a5
    80002170:	079e                	slli	a5,a5,0x7
    80002172:	97ca                	add	a5,a5,s2
    80002174:	0ac7a983          	lw	s3,172(a5)
    80002178:	8792                	mv	a5,tp
  swtch(&p->context, &mycpu()->context);
    8000217a:	2781                	sext.w	a5,a5
    8000217c:	079e                	slli	a5,a5,0x7
    8000217e:	00010597          	auipc	a1,0x10
    80002182:	15a58593          	addi	a1,a1,346 # 800122d8 <cpus+0x8>
    80002186:	95be                	add	a1,a1,a5
    80002188:	06048513          	addi	a0,s1,96
    8000218c:	00001097          	auipc	ra,0x1
    80002190:	dfc080e7          	jalr	-516(ra) # 80002f88 <swtch>
    80002194:	8792                	mv	a5,tp
  mycpu()->intena = intena;
    80002196:	2781                	sext.w	a5,a5
    80002198:	079e                	slli	a5,a5,0x7
    8000219a:	97ca                	add	a5,a5,s2
    8000219c:	0b37a623          	sw	s3,172(a5)
}
    800021a0:	70a2                	ld	ra,40(sp)
    800021a2:	7402                	ld	s0,32(sp)
    800021a4:	64e2                	ld	s1,24(sp)
    800021a6:	6942                	ld	s2,16(sp)
    800021a8:	69a2                	ld	s3,8(sp)
    800021aa:	6145                	addi	sp,sp,48
    800021ac:	8082                	ret
    panic("sched p->lock");
    800021ae:	00007517          	auipc	a0,0x7
    800021b2:	25a50513          	addi	a0,a0,602 # 80009408 <digits+0x3c8>
    800021b6:	ffffe097          	auipc	ra,0xffffe
    800021ba:	374080e7          	jalr	884(ra) # 8000052a <panic>
    panic("sched locks");
    800021be:	00007517          	auipc	a0,0x7
    800021c2:	25a50513          	addi	a0,a0,602 # 80009418 <digits+0x3d8>
    800021c6:	ffffe097          	auipc	ra,0xffffe
    800021ca:	364080e7          	jalr	868(ra) # 8000052a <panic>
    panic("sched running");
    800021ce:	00007517          	auipc	a0,0x7
    800021d2:	25a50513          	addi	a0,a0,602 # 80009428 <digits+0x3e8>
    800021d6:	ffffe097          	auipc	ra,0xffffe
    800021da:	354080e7          	jalr	852(ra) # 8000052a <panic>
    panic("sched interruptible");
    800021de:	00007517          	auipc	a0,0x7
    800021e2:	25a50513          	addi	a0,a0,602 # 80009438 <digits+0x3f8>
    800021e6:	ffffe097          	auipc	ra,0xffffe
    800021ea:	344080e7          	jalr	836(ra) # 8000052a <panic>

00000000800021ee <yield>:
{
    800021ee:	1101                	addi	sp,sp,-32
    800021f0:	ec06                	sd	ra,24(sp)
    800021f2:	e822                	sd	s0,16(sp)
    800021f4:	e426                	sd	s1,8(sp)
    800021f6:	1000                	addi	s0,sp,32
  struct proc *p = myproc();
    800021f8:	00000097          	auipc	ra,0x0
    800021fc:	b3a080e7          	jalr	-1222(ra) # 80001d32 <myproc>
    80002200:	84aa                	mv	s1,a0
  acquire(&p->lock);
    80002202:	fffff097          	auipc	ra,0xfffff
    80002206:	9c0080e7          	jalr	-1600(ra) # 80000bc2 <acquire>
  p->state = RUNNABLE;
    8000220a:	478d                	li	a5,3
    8000220c:	cc9c                	sw	a5,24(s1)
  sched();
    8000220e:	00000097          	auipc	ra,0x0
    80002212:	f0a080e7          	jalr	-246(ra) # 80002118 <sched>
  release(&p->lock);
    80002216:	8526                	mv	a0,s1
    80002218:	fffff097          	auipc	ra,0xfffff
    8000221c:	a5e080e7          	jalr	-1442(ra) # 80000c76 <release>
}
    80002220:	60e2                	ld	ra,24(sp)
    80002222:	6442                	ld	s0,16(sp)
    80002224:	64a2                	ld	s1,8(sp)
    80002226:	6105                	addi	sp,sp,32
    80002228:	8082                	ret

000000008000222a <sleep>:

// Atomically release lock and sleep on chan.
// Reacquires lock when awakened.
void sleep(void *chan, struct spinlock *lk)
{
    8000222a:	7179                	addi	sp,sp,-48
    8000222c:	f406                	sd	ra,40(sp)
    8000222e:	f022                	sd	s0,32(sp)
    80002230:	ec26                	sd	s1,24(sp)
    80002232:	e84a                	sd	s2,16(sp)
    80002234:	e44e                	sd	s3,8(sp)
    80002236:	1800                	addi	s0,sp,48
    80002238:	89aa                	mv	s3,a0
    8000223a:	892e                	mv	s2,a1
  struct proc *p = myproc();
    8000223c:	00000097          	auipc	ra,0x0
    80002240:	af6080e7          	jalr	-1290(ra) # 80001d32 <myproc>
    80002244:	84aa                	mv	s1,a0
  // Once we hold p->lock, we can be
  // guaranteed that we won't miss any wakeup
  // (wakeup locks p->lock),
  // so it's okay to release lk.

  acquire(&p->lock); //DOC: sleeplock1
    80002246:	fffff097          	auipc	ra,0xfffff
    8000224a:	97c080e7          	jalr	-1668(ra) # 80000bc2 <acquire>
  release(lk);
    8000224e:	854a                	mv	a0,s2
    80002250:	fffff097          	auipc	ra,0xfffff
    80002254:	a26080e7          	jalr	-1498(ra) # 80000c76 <release>

  // Go to sleep.
  p->chan = chan;
    80002258:	0334b023          	sd	s3,32(s1)
  p->state = SLEEPING;
    8000225c:	4789                	li	a5,2
    8000225e:	cc9c                	sw	a5,24(s1)

  sched();
    80002260:	00000097          	auipc	ra,0x0
    80002264:	eb8080e7          	jalr	-328(ra) # 80002118 <sched>

  // Tidy up.
  p->chan = 0;
    80002268:	0204b023          	sd	zero,32(s1)

  // Reacquire original lock.
  release(&p->lock);
    8000226c:	8526                	mv	a0,s1
    8000226e:	fffff097          	auipc	ra,0xfffff
    80002272:	a08080e7          	jalr	-1528(ra) # 80000c76 <release>
  acquire(lk);
    80002276:	854a                	mv	a0,s2
    80002278:	fffff097          	auipc	ra,0xfffff
    8000227c:	94a080e7          	jalr	-1718(ra) # 80000bc2 <acquire>
}
    80002280:	70a2                	ld	ra,40(sp)
    80002282:	7402                	ld	s0,32(sp)
    80002284:	64e2                	ld	s1,24(sp)
    80002286:	6942                	ld	s2,16(sp)
    80002288:	69a2                	ld	s3,8(sp)
    8000228a:	6145                	addi	sp,sp,48
    8000228c:	8082                	ret

000000008000228e <wait>:
{
    8000228e:	715d                	addi	sp,sp,-80
    80002290:	e486                	sd	ra,72(sp)
    80002292:	e0a2                	sd	s0,64(sp)
    80002294:	fc26                	sd	s1,56(sp)
    80002296:	f84a                	sd	s2,48(sp)
    80002298:	f44e                	sd	s3,40(sp)
    8000229a:	f052                	sd	s4,32(sp)
    8000229c:	ec56                	sd	s5,24(sp)
    8000229e:	e85a                	sd	s6,16(sp)
    800022a0:	e45e                	sd	s7,8(sp)
    800022a2:	e062                	sd	s8,0(sp)
    800022a4:	0880                	addi	s0,sp,80
    800022a6:	8b2a                	mv	s6,a0
  struct proc *p = myproc();
    800022a8:	00000097          	auipc	ra,0x0
    800022ac:	a8a080e7          	jalr	-1398(ra) # 80001d32 <myproc>
    800022b0:	892a                	mv	s2,a0
  acquire(&wait_lock);
    800022b2:	00010517          	auipc	a0,0x10
    800022b6:	00650513          	addi	a0,a0,6 # 800122b8 <wait_lock>
    800022ba:	fffff097          	auipc	ra,0xfffff
    800022be:	908080e7          	jalr	-1784(ra) # 80000bc2 <acquire>
    havekids = 0;
    800022c2:	4b81                	li	s7,0
        if (np->state == ZOMBIE)
    800022c4:	4a15                	li	s4,5
        havekids = 1;
    800022c6:	4a85                	li	s5,1
    for (np = proc; np < &proc[NPROC]; np++)
    800022c8:	00023997          	auipc	s3,0x23
    800022cc:	80898993          	addi	s3,s3,-2040 # 80024ad0 <tickslock>
    sleep(p, &wait_lock); //DOC: wait-sleep
    800022d0:	00010c17          	auipc	s8,0x10
    800022d4:	fe8c0c13          	addi	s8,s8,-24 # 800122b8 <wait_lock>
    havekids = 0;
    800022d8:	875e                	mv	a4,s7
    for (np = proc; np < &proc[NPROC]; np++)
    800022da:	00010497          	auipc	s1,0x10
    800022de:	3f648493          	addi	s1,s1,1014 # 800126d0 <proc>
    800022e2:	a0bd                	j	80002350 <wait+0xc2>
          pid = np->pid;
    800022e4:	0304a983          	lw	s3,48(s1)
          if (addr != 0 && copyout(p->pagetable, addr, (char *)&np->xstate,
    800022e8:	000b0e63          	beqz	s6,80002304 <wait+0x76>
    800022ec:	4691                	li	a3,4
    800022ee:	02c48613          	addi	a2,s1,44
    800022f2:	85da                	mv	a1,s6
    800022f4:	05093503          	ld	a0,80(s2)
    800022f8:	fffff097          	auipc	ra,0xfffff
    800022fc:	0b2080e7          	jalr	178(ra) # 800013aa <copyout>
    80002300:	02054563          	bltz	a0,8000232a <wait+0x9c>
          freeproc(np);
    80002304:	8526                	mv	a0,s1
    80002306:	00000097          	auipc	ra,0x0
    8000230a:	bde080e7          	jalr	-1058(ra) # 80001ee4 <freeproc>
          release(&np->lock);
    8000230e:	8526                	mv	a0,s1
    80002310:	fffff097          	auipc	ra,0xfffff
    80002314:	966080e7          	jalr	-1690(ra) # 80000c76 <release>
          release(&wait_lock);
    80002318:	00010517          	auipc	a0,0x10
    8000231c:	fa050513          	addi	a0,a0,-96 # 800122b8 <wait_lock>
    80002320:	fffff097          	auipc	ra,0xfffff
    80002324:	956080e7          	jalr	-1706(ra) # 80000c76 <release>
          return pid;
    80002328:	a09d                	j	8000238e <wait+0x100>
            release(&np->lock);
    8000232a:	8526                	mv	a0,s1
    8000232c:	fffff097          	auipc	ra,0xfffff
    80002330:	94a080e7          	jalr	-1718(ra) # 80000c76 <release>
            release(&wait_lock);
    80002334:	00010517          	auipc	a0,0x10
    80002338:	f8450513          	addi	a0,a0,-124 # 800122b8 <wait_lock>
    8000233c:	fffff097          	auipc	ra,0xfffff
    80002340:	93a080e7          	jalr	-1734(ra) # 80000c76 <release>
            return -1;
    80002344:	59fd                	li	s3,-1
    80002346:	a0a1                	j	8000238e <wait+0x100>
    for (np = proc; np < &proc[NPROC]; np++)
    80002348:	49048493          	addi	s1,s1,1168
    8000234c:	03348463          	beq	s1,s3,80002374 <wait+0xe6>
      if (np->parent == p)
    80002350:	7c9c                	ld	a5,56(s1)
    80002352:	ff279be3          	bne	a5,s2,80002348 <wait+0xba>
        acquire(&np->lock);
    80002356:	8526                	mv	a0,s1
    80002358:	fffff097          	auipc	ra,0xfffff
    8000235c:	86a080e7          	jalr	-1942(ra) # 80000bc2 <acquire>
        if (np->state == ZOMBIE)
    80002360:	4c9c                	lw	a5,24(s1)
    80002362:	f94781e3          	beq	a5,s4,800022e4 <wait+0x56>
        release(&np->lock);
    80002366:	8526                	mv	a0,s1
    80002368:	fffff097          	auipc	ra,0xfffff
    8000236c:	90e080e7          	jalr	-1778(ra) # 80000c76 <release>
        havekids = 1;
    80002370:	8756                	mv	a4,s5
    80002372:	bfd9                	j	80002348 <wait+0xba>
    if (!havekids || p->killed)
    80002374:	c701                	beqz	a4,8000237c <wait+0xee>
    80002376:	02892783          	lw	a5,40(s2)
    8000237a:	c79d                	beqz	a5,800023a8 <wait+0x11a>
      release(&wait_lock);
    8000237c:	00010517          	auipc	a0,0x10
    80002380:	f3c50513          	addi	a0,a0,-196 # 800122b8 <wait_lock>
    80002384:	fffff097          	auipc	ra,0xfffff
    80002388:	8f2080e7          	jalr	-1806(ra) # 80000c76 <release>
      return -1;
    8000238c:	59fd                	li	s3,-1
}
    8000238e:	854e                	mv	a0,s3
    80002390:	60a6                	ld	ra,72(sp)
    80002392:	6406                	ld	s0,64(sp)
    80002394:	74e2                	ld	s1,56(sp)
    80002396:	7942                	ld	s2,48(sp)
    80002398:	79a2                	ld	s3,40(sp)
    8000239a:	7a02                	ld	s4,32(sp)
    8000239c:	6ae2                	ld	s5,24(sp)
    8000239e:	6b42                	ld	s6,16(sp)
    800023a0:	6ba2                	ld	s7,8(sp)
    800023a2:	6c02                	ld	s8,0(sp)
    800023a4:	6161                	addi	sp,sp,80
    800023a6:	8082                	ret
    sleep(p, &wait_lock); //DOC: wait-sleep
    800023a8:	85e2                	mv	a1,s8
    800023aa:	854a                	mv	a0,s2
    800023ac:	00000097          	auipc	ra,0x0
    800023b0:	e7e080e7          	jalr	-386(ra) # 8000222a <sleep>
    havekids = 0;
    800023b4:	b715                	j	800022d8 <wait+0x4a>

00000000800023b6 <wakeup>:

// Wake up all processes sleeping on chan.
// Must be called without any p->lock.
void wakeup(void *chan)
{
    800023b6:	7139                	addi	sp,sp,-64
    800023b8:	fc06                	sd	ra,56(sp)
    800023ba:	f822                	sd	s0,48(sp)
    800023bc:	f426                	sd	s1,40(sp)
    800023be:	f04a                	sd	s2,32(sp)
    800023c0:	ec4e                	sd	s3,24(sp)
    800023c2:	e852                	sd	s4,16(sp)
    800023c4:	e456                	sd	s5,8(sp)
    800023c6:	0080                	addi	s0,sp,64
    800023c8:	8a2a                	mv	s4,a0
  struct proc *p;

  for (p = proc; p < &proc[NPROC]; p++)
    800023ca:	00010497          	auipc	s1,0x10
    800023ce:	30648493          	addi	s1,s1,774 # 800126d0 <proc>
  {
    if (p != myproc())
    {
      acquire(&p->lock);
      if (p->state == SLEEPING && p->chan == chan)
    800023d2:	4989                	li	s3,2
      {
        p->state = RUNNABLE;
    800023d4:	4a8d                	li	s5,3
  for (p = proc; p < &proc[NPROC]; p++)
    800023d6:	00022917          	auipc	s2,0x22
    800023da:	6fa90913          	addi	s2,s2,1786 # 80024ad0 <tickslock>
    800023de:	a811                	j	800023f2 <wakeup+0x3c>
      }
      release(&p->lock);
    800023e0:	8526                	mv	a0,s1
    800023e2:	fffff097          	auipc	ra,0xfffff
    800023e6:	894080e7          	jalr	-1900(ra) # 80000c76 <release>
  for (p = proc; p < &proc[NPROC]; p++)
    800023ea:	49048493          	addi	s1,s1,1168
    800023ee:	03248663          	beq	s1,s2,8000241a <wakeup+0x64>
    if (p != myproc())
    800023f2:	00000097          	auipc	ra,0x0
    800023f6:	940080e7          	jalr	-1728(ra) # 80001d32 <myproc>
    800023fa:	fea488e3          	beq	s1,a0,800023ea <wakeup+0x34>
      acquire(&p->lock);
    800023fe:	8526                	mv	a0,s1
    80002400:	ffffe097          	auipc	ra,0xffffe
    80002404:	7c2080e7          	jalr	1986(ra) # 80000bc2 <acquire>
      if (p->state == SLEEPING && p->chan == chan)
    80002408:	4c9c                	lw	a5,24(s1)
    8000240a:	fd379be3          	bne	a5,s3,800023e0 <wakeup+0x2a>
    8000240e:	709c                	ld	a5,32(s1)
    80002410:	fd4798e3          	bne	a5,s4,800023e0 <wakeup+0x2a>
        p->state = RUNNABLE;
    80002414:	0154ac23          	sw	s5,24(s1)
    80002418:	b7e1                	j	800023e0 <wakeup+0x2a>
    }
  }
}
    8000241a:	70e2                	ld	ra,56(sp)
    8000241c:	7442                	ld	s0,48(sp)
    8000241e:	74a2                	ld	s1,40(sp)
    80002420:	7902                	ld	s2,32(sp)
    80002422:	69e2                	ld	s3,24(sp)
    80002424:	6a42                	ld	s4,16(sp)
    80002426:	6aa2                	ld	s5,8(sp)
    80002428:	6121                	addi	sp,sp,64
    8000242a:	8082                	ret

000000008000242c <reparent>:
{
    8000242c:	7179                	addi	sp,sp,-48
    8000242e:	f406                	sd	ra,40(sp)
    80002430:	f022                	sd	s0,32(sp)
    80002432:	ec26                	sd	s1,24(sp)
    80002434:	e84a                	sd	s2,16(sp)
    80002436:	e44e                	sd	s3,8(sp)
    80002438:	e052                	sd	s4,0(sp)
    8000243a:	1800                	addi	s0,sp,48
    8000243c:	892a                	mv	s2,a0
  for (pp = proc; pp < &proc[NPROC]; pp++)
    8000243e:	00010497          	auipc	s1,0x10
    80002442:	29248493          	addi	s1,s1,658 # 800126d0 <proc>
      pp->parent = initproc;
    80002446:	00008a17          	auipc	s4,0x8
    8000244a:	be2a0a13          	addi	s4,s4,-1054 # 8000a028 <initproc>
  for (pp = proc; pp < &proc[NPROC]; pp++)
    8000244e:	00022997          	auipc	s3,0x22
    80002452:	68298993          	addi	s3,s3,1666 # 80024ad0 <tickslock>
    80002456:	a029                	j	80002460 <reparent+0x34>
    80002458:	49048493          	addi	s1,s1,1168
    8000245c:	01348d63          	beq	s1,s3,80002476 <reparent+0x4a>
    if (pp->parent == p)
    80002460:	7c9c                	ld	a5,56(s1)
    80002462:	ff279be3          	bne	a5,s2,80002458 <reparent+0x2c>
      pp->parent = initproc;
    80002466:	000a3503          	ld	a0,0(s4)
    8000246a:	fc88                	sd	a0,56(s1)
      wakeup(initproc);
    8000246c:	00000097          	auipc	ra,0x0
    80002470:	f4a080e7          	jalr	-182(ra) # 800023b6 <wakeup>
    80002474:	b7d5                	j	80002458 <reparent+0x2c>
}
    80002476:	70a2                	ld	ra,40(sp)
    80002478:	7402                	ld	s0,32(sp)
    8000247a:	64e2                	ld	s1,24(sp)
    8000247c:	6942                	ld	s2,16(sp)
    8000247e:	69a2                	ld	s3,8(sp)
    80002480:	6a02                	ld	s4,0(sp)
    80002482:	6145                	addi	sp,sp,48
    80002484:	8082                	ret

0000000080002486 <exit>:
{
    80002486:	7179                	addi	sp,sp,-48
    80002488:	f406                	sd	ra,40(sp)
    8000248a:	f022                	sd	s0,32(sp)
    8000248c:	ec26                	sd	s1,24(sp)
    8000248e:	e84a                	sd	s2,16(sp)
    80002490:	e44e                	sd	s3,8(sp)
    80002492:	e052                	sd	s4,0(sp)
    80002494:	1800                	addi	s0,sp,48
    80002496:	8a2a                	mv	s4,a0
  struct proc *p = myproc();
    80002498:	00000097          	auipc	ra,0x0
    8000249c:	89a080e7          	jalr	-1894(ra) # 80001d32 <myproc>
    800024a0:	89aa                	mv	s3,a0
  if (p == initproc)
    800024a2:	00008797          	auipc	a5,0x8
    800024a6:	b867b783          	ld	a5,-1146(a5) # 8000a028 <initproc>
    800024aa:	0d050493          	addi	s1,a0,208
    800024ae:	15050913          	addi	s2,a0,336
    800024b2:	02a79363          	bne	a5,a0,800024d8 <exit+0x52>
    panic("init exiting");
    800024b6:	00007517          	auipc	a0,0x7
    800024ba:	f9a50513          	addi	a0,a0,-102 # 80009450 <digits+0x410>
    800024be:	ffffe097          	auipc	ra,0xffffe
    800024c2:	06c080e7          	jalr	108(ra) # 8000052a <panic>
      fileclose(f);
    800024c6:	00003097          	auipc	ra,0x3
    800024ca:	de4080e7          	jalr	-540(ra) # 800052aa <fileclose>
      p->ofile[fd] = 0;
    800024ce:	0004b023          	sd	zero,0(s1)
  for (int fd = 0; fd < NOFILE; fd++)
    800024d2:	04a1                	addi	s1,s1,8
    800024d4:	01248563          	beq	s1,s2,800024de <exit+0x58>
    if (p->ofile[fd])
    800024d8:	6088                	ld	a0,0(s1)
    800024da:	f575                	bnez	a0,800024c6 <exit+0x40>
    800024dc:	bfdd                	j	800024d2 <exit+0x4c>
  removeSwapFile(p); // Remove swap file of p
    800024de:	854e                	mv	a0,s3
    800024e0:	00002097          	auipc	ra,0x2
    800024e4:	478080e7          	jalr	1144(ra) # 80004958 <removeSwapFile>
  begin_op();
    800024e8:	00003097          	auipc	ra,0x3
    800024ec:	8f6080e7          	jalr	-1802(ra) # 80004dde <begin_op>
  iput(p->cwd);
    800024f0:	1509b503          	ld	a0,336(s3)
    800024f4:	00002097          	auipc	ra,0x2
    800024f8:	dbc080e7          	jalr	-580(ra) # 800042b0 <iput>
  end_op();
    800024fc:	00003097          	auipc	ra,0x3
    80002500:	962080e7          	jalr	-1694(ra) # 80004e5e <end_op>
  p->cwd = 0;
    80002504:	1409b823          	sd	zero,336(s3)
  acquire(&wait_lock);
    80002508:	00010497          	auipc	s1,0x10
    8000250c:	db048493          	addi	s1,s1,-592 # 800122b8 <wait_lock>
    80002510:	8526                	mv	a0,s1
    80002512:	ffffe097          	auipc	ra,0xffffe
    80002516:	6b0080e7          	jalr	1712(ra) # 80000bc2 <acquire>
  reparent(p);
    8000251a:	854e                	mv	a0,s3
    8000251c:	00000097          	auipc	ra,0x0
    80002520:	f10080e7          	jalr	-240(ra) # 8000242c <reparent>
  wakeup(p->parent);
    80002524:	0389b503          	ld	a0,56(s3)
    80002528:	00000097          	auipc	ra,0x0
    8000252c:	e8e080e7          	jalr	-370(ra) # 800023b6 <wakeup>
  acquire(&p->lock);
    80002530:	854e                	mv	a0,s3
    80002532:	ffffe097          	auipc	ra,0xffffe
    80002536:	690080e7          	jalr	1680(ra) # 80000bc2 <acquire>
  p->xstate = status;
    8000253a:	0349a623          	sw	s4,44(s3)
  p->state = ZOMBIE;
    8000253e:	4795                	li	a5,5
    80002540:	00f9ac23          	sw	a5,24(s3)
  release(&wait_lock);
    80002544:	8526                	mv	a0,s1
    80002546:	ffffe097          	auipc	ra,0xffffe
    8000254a:	730080e7          	jalr	1840(ra) # 80000c76 <release>
  sched();
    8000254e:	00000097          	auipc	ra,0x0
    80002552:	bca080e7          	jalr	-1078(ra) # 80002118 <sched>
  panic("zombie exit");
    80002556:	00007517          	auipc	a0,0x7
    8000255a:	f0a50513          	addi	a0,a0,-246 # 80009460 <digits+0x420>
    8000255e:	ffffe097          	auipc	ra,0xffffe
    80002562:	fcc080e7          	jalr	-52(ra) # 8000052a <panic>

0000000080002566 <kill>:

// Kill the process with the given pid.
// The victim won't exit until it tries to return
// to user space (see usertrap() in trap.c).
int kill(int pid)
{
    80002566:	7179                	addi	sp,sp,-48
    80002568:	f406                	sd	ra,40(sp)
    8000256a:	f022                	sd	s0,32(sp)
    8000256c:	ec26                	sd	s1,24(sp)
    8000256e:	e84a                	sd	s2,16(sp)
    80002570:	e44e                	sd	s3,8(sp)
    80002572:	1800                	addi	s0,sp,48
    80002574:	892a                	mv	s2,a0
  struct proc *p;

  for (p = proc; p < &proc[NPROC]; p++)
    80002576:	00010497          	auipc	s1,0x10
    8000257a:	15a48493          	addi	s1,s1,346 # 800126d0 <proc>
    8000257e:	00022997          	auipc	s3,0x22
    80002582:	55298993          	addi	s3,s3,1362 # 80024ad0 <tickslock>
  {
    acquire(&p->lock);
    80002586:	8526                	mv	a0,s1
    80002588:	ffffe097          	auipc	ra,0xffffe
    8000258c:	63a080e7          	jalr	1594(ra) # 80000bc2 <acquire>
    if (p->pid == pid)
    80002590:	589c                	lw	a5,48(s1)
    80002592:	01278d63          	beq	a5,s2,800025ac <kill+0x46>
        p->state = RUNNABLE;
      }
      release(&p->lock);
      return 0;
    }
    release(&p->lock);
    80002596:	8526                	mv	a0,s1
    80002598:	ffffe097          	auipc	ra,0xffffe
    8000259c:	6de080e7          	jalr	1758(ra) # 80000c76 <release>
  for (p = proc; p < &proc[NPROC]; p++)
    800025a0:	49048493          	addi	s1,s1,1168
    800025a4:	ff3491e3          	bne	s1,s3,80002586 <kill+0x20>
  }
  return -1;
    800025a8:	557d                	li	a0,-1
    800025aa:	a829                	j	800025c4 <kill+0x5e>
      p->killed = 1;
    800025ac:	4785                	li	a5,1
    800025ae:	d49c                	sw	a5,40(s1)
      if (p->state == SLEEPING)
    800025b0:	4c98                	lw	a4,24(s1)
    800025b2:	4789                	li	a5,2
    800025b4:	00f70f63          	beq	a4,a5,800025d2 <kill+0x6c>
      release(&p->lock);
    800025b8:	8526                	mv	a0,s1
    800025ba:	ffffe097          	auipc	ra,0xffffe
    800025be:	6bc080e7          	jalr	1724(ra) # 80000c76 <release>
      return 0;
    800025c2:	4501                	li	a0,0
}
    800025c4:	70a2                	ld	ra,40(sp)
    800025c6:	7402                	ld	s0,32(sp)
    800025c8:	64e2                	ld	s1,24(sp)
    800025ca:	6942                	ld	s2,16(sp)
    800025cc:	69a2                	ld	s3,8(sp)
    800025ce:	6145                	addi	sp,sp,48
    800025d0:	8082                	ret
        p->state = RUNNABLE;
    800025d2:	478d                	li	a5,3
    800025d4:	cc9c                	sw	a5,24(s1)
    800025d6:	b7cd                	j	800025b8 <kill+0x52>

00000000800025d8 <either_copyout>:

// Copy to either a user address, or kernel address,
// depending on usr_dst.
// Returns 0 on success, -1 on error.
int either_copyout(int user_dst, uint64 dst, void *src, uint64 len)
{
    800025d8:	7179                	addi	sp,sp,-48
    800025da:	f406                	sd	ra,40(sp)
    800025dc:	f022                	sd	s0,32(sp)
    800025de:	ec26                	sd	s1,24(sp)
    800025e0:	e84a                	sd	s2,16(sp)
    800025e2:	e44e                	sd	s3,8(sp)
    800025e4:	e052                	sd	s4,0(sp)
    800025e6:	1800                	addi	s0,sp,48
    800025e8:	84aa                	mv	s1,a0
    800025ea:	892e                	mv	s2,a1
    800025ec:	89b2                	mv	s3,a2
    800025ee:	8a36                	mv	s4,a3
  struct proc *p = myproc();
    800025f0:	fffff097          	auipc	ra,0xfffff
    800025f4:	742080e7          	jalr	1858(ra) # 80001d32 <myproc>
  if (user_dst)
    800025f8:	c08d                	beqz	s1,8000261a <either_copyout+0x42>
  {
    return copyout(p->pagetable, dst, src, len);
    800025fa:	86d2                	mv	a3,s4
    800025fc:	864e                	mv	a2,s3
    800025fe:	85ca                	mv	a1,s2
    80002600:	6928                	ld	a0,80(a0)
    80002602:	fffff097          	auipc	ra,0xfffff
    80002606:	da8080e7          	jalr	-600(ra) # 800013aa <copyout>
  else
  {
    memmove((char *)dst, src, len);
    return 0;
  }
}
    8000260a:	70a2                	ld	ra,40(sp)
    8000260c:	7402                	ld	s0,32(sp)
    8000260e:	64e2                	ld	s1,24(sp)
    80002610:	6942                	ld	s2,16(sp)
    80002612:	69a2                	ld	s3,8(sp)
    80002614:	6a02                	ld	s4,0(sp)
    80002616:	6145                	addi	sp,sp,48
    80002618:	8082                	ret
    memmove((char *)dst, src, len);
    8000261a:	000a061b          	sext.w	a2,s4
    8000261e:	85ce                	mv	a1,s3
    80002620:	854a                	mv	a0,s2
    80002622:	ffffe097          	auipc	ra,0xffffe
    80002626:	6f8080e7          	jalr	1784(ra) # 80000d1a <memmove>
    return 0;
    8000262a:	8526                	mv	a0,s1
    8000262c:	bff9                	j	8000260a <either_copyout+0x32>

000000008000262e <either_copyin>:

// Copy from either a user address, or kernel address,
// depending on usr_src.
// Returns 0 on success, -1 on error.
int either_copyin(void *dst, int user_src, uint64 src, uint64 len)
{
    8000262e:	7179                	addi	sp,sp,-48
    80002630:	f406                	sd	ra,40(sp)
    80002632:	f022                	sd	s0,32(sp)
    80002634:	ec26                	sd	s1,24(sp)
    80002636:	e84a                	sd	s2,16(sp)
    80002638:	e44e                	sd	s3,8(sp)
    8000263a:	e052                	sd	s4,0(sp)
    8000263c:	1800                	addi	s0,sp,48
    8000263e:	892a                	mv	s2,a0
    80002640:	84ae                	mv	s1,a1
    80002642:	89b2                	mv	s3,a2
    80002644:	8a36                	mv	s4,a3
  struct proc *p = myproc();
    80002646:	fffff097          	auipc	ra,0xfffff
    8000264a:	6ec080e7          	jalr	1772(ra) # 80001d32 <myproc>
  if (user_src)
    8000264e:	c08d                	beqz	s1,80002670 <either_copyin+0x42>
  {
    return copyin(p->pagetable, dst, src, len);
    80002650:	86d2                	mv	a3,s4
    80002652:	864e                	mv	a2,s3
    80002654:	85ca                	mv	a1,s2
    80002656:	6928                	ld	a0,80(a0)
    80002658:	fffff097          	auipc	ra,0xfffff
    8000265c:	de0080e7          	jalr	-544(ra) # 80001438 <copyin>
  else
  {
    memmove(dst, (char *)src, len);
    return 0;
  }
}
    80002660:	70a2                	ld	ra,40(sp)
    80002662:	7402                	ld	s0,32(sp)
    80002664:	64e2                	ld	s1,24(sp)
    80002666:	6942                	ld	s2,16(sp)
    80002668:	69a2                	ld	s3,8(sp)
    8000266a:	6a02                	ld	s4,0(sp)
    8000266c:	6145                	addi	sp,sp,48
    8000266e:	8082                	ret
    memmove(dst, (char *)src, len);
    80002670:	000a061b          	sext.w	a2,s4
    80002674:	85ce                	mv	a1,s3
    80002676:	854a                	mv	a0,s2
    80002678:	ffffe097          	auipc	ra,0xffffe
    8000267c:	6a2080e7          	jalr	1698(ra) # 80000d1a <memmove>
    return 0;
    80002680:	8526                	mv	a0,s1
    80002682:	bff9                	j	80002660 <either_copyin+0x32>

0000000080002684 <procdump>:

// Print a process listing to console.  For debugging.
// Runs when user types ^P on console.
// No lock to avoid wedging a stuck machine further.
void procdump(void)
{
    80002684:	715d                	addi	sp,sp,-80
    80002686:	e486                	sd	ra,72(sp)
    80002688:	e0a2                	sd	s0,64(sp)
    8000268a:	fc26                	sd	s1,56(sp)
    8000268c:	f84a                	sd	s2,48(sp)
    8000268e:	f44e                	sd	s3,40(sp)
    80002690:	f052                	sd	s4,32(sp)
    80002692:	ec56                	sd	s5,24(sp)
    80002694:	e85a                	sd	s6,16(sp)
    80002696:	e45e                	sd	s7,8(sp)
    80002698:	0880                	addi	s0,sp,80
      [RUNNING] "run   ",
      [ZOMBIE] "zombie"};
  struct proc *p;
  char *state;

  printf("\n");
    8000269a:	00007517          	auipc	a0,0x7
    8000269e:	ffe50513          	addi	a0,a0,-2 # 80009698 <digits+0x658>
    800026a2:	ffffe097          	auipc	ra,0xffffe
    800026a6:	ed2080e7          	jalr	-302(ra) # 80000574 <printf>
  for (p = proc; p < &proc[NPROC]; p++)
    800026aa:	00010497          	auipc	s1,0x10
    800026ae:	17e48493          	addi	s1,s1,382 # 80012828 <proc+0x158>
    800026b2:	00022917          	auipc	s2,0x22
    800026b6:	57690913          	addi	s2,s2,1398 # 80024c28 <bcache+0x140>
  {
    if (p->state == UNUSED)
      continue;
    if (p->state >= 0 && p->state < NELEM(states) && states[p->state])
    800026ba:	4b15                	li	s6,5
      state = states[p->state];
    else
      state = "???";
    800026bc:	00007997          	auipc	s3,0x7
    800026c0:	db498993          	addi	s3,s3,-588 # 80009470 <digits+0x430>
    printf("%d %s %s", p->pid, state, p->name);
    800026c4:	00007a97          	auipc	s5,0x7
    800026c8:	db4a8a93          	addi	s5,s5,-588 # 80009478 <digits+0x438>
    printf("\n");
    800026cc:	00007a17          	auipc	s4,0x7
    800026d0:	fcca0a13          	addi	s4,s4,-52 # 80009698 <digits+0x658>
    if (p->state >= 0 && p->state < NELEM(states) && states[p->state])
    800026d4:	00007b97          	auipc	s7,0x7
    800026d8:	ff4b8b93          	addi	s7,s7,-12 # 800096c8 <states.0>
    800026dc:	a00d                	j	800026fe <procdump+0x7a>
    printf("%d %s %s", p->pid, state, p->name);
    800026de:	ed86a583          	lw	a1,-296(a3)
    800026e2:	8556                	mv	a0,s5
    800026e4:	ffffe097          	auipc	ra,0xffffe
    800026e8:	e90080e7          	jalr	-368(ra) # 80000574 <printf>
    printf("\n");
    800026ec:	8552                	mv	a0,s4
    800026ee:	ffffe097          	auipc	ra,0xffffe
    800026f2:	e86080e7          	jalr	-378(ra) # 80000574 <printf>
  for (p = proc; p < &proc[NPROC]; p++)
    800026f6:	49048493          	addi	s1,s1,1168
    800026fa:	03248263          	beq	s1,s2,8000271e <procdump+0x9a>
    if (p->state == UNUSED)
    800026fe:	86a6                	mv	a3,s1
    80002700:	ec04a783          	lw	a5,-320(s1)
    80002704:	dbed                	beqz	a5,800026f6 <procdump+0x72>
      state = "???";
    80002706:	864e                	mv	a2,s3
    if (p->state >= 0 && p->state < NELEM(states) && states[p->state])
    80002708:	fcfb6be3          	bltu	s6,a5,800026de <procdump+0x5a>
    8000270c:	02079713          	slli	a4,a5,0x20
    80002710:	01d75793          	srli	a5,a4,0x1d
    80002714:	97de                	add	a5,a5,s7
    80002716:	6390                	ld	a2,0(a5)
    80002718:	f279                	bnez	a2,800026de <procdump+0x5a>
      state = "???";
    8000271a:	864e                	mv	a2,s3
    8000271c:	b7c9                	j	800026de <procdump+0x5a>
  }
}
    8000271e:	60a6                	ld	ra,72(sp)
    80002720:	6406                	ld	s0,64(sp)
    80002722:	74e2                	ld	s1,56(sp)
    80002724:	7942                	ld	s2,48(sp)
    80002726:	79a2                	ld	s3,40(sp)
    80002728:	7a02                	ld	s4,32(sp)
    8000272a:	6ae2                	ld	s5,24(sp)
    8000272c:	6b42                	ld	s6,16(sp)
    8000272e:	6ba2                	ld	s7,8(sp)
    80002730:	6161                	addi	sp,sp,80
    80002732:	8082                	ret

0000000080002734 <get_next_free_space>:

// Next free space in swap file
int get_next_free_space(uint16 free_spaces)
{
    80002734:	1141                	addi	sp,sp,-16
    80002736:	e422                	sd	s0,8(sp)
    80002738:	0800                	addi	s0,sp,16
  for (int i = 0; i < MAX_PSYC_PAGES; i++)
  {
    if (!(free_spaces & (1 << i)))
    8000273a:	0005071b          	sext.w	a4,a0
    8000273e:	8905                	andi	a0,a0,1
    80002740:	cd11                	beqz	a0,8000275c <get_next_free_space+0x28>
  for (int i = 0; i < MAX_PSYC_PAGES; i++)
    80002742:	4505                	li	a0,1
    80002744:	46c1                	li	a3,16
    if (!(free_spaces & (1 << i)))
    80002746:	40a757bb          	sraw	a5,a4,a0
    8000274a:	8b85                	andi	a5,a5,1
    8000274c:	c789                	beqz	a5,80002756 <get_next_free_space+0x22>
  for (int i = 0; i < MAX_PSYC_PAGES; i++)
    8000274e:	2505                	addiw	a0,a0,1
    80002750:	fed51be3          	bne	a0,a3,80002746 <get_next_free_space+0x12>
      return i;
  }
  return -1;
    80002754:	557d                	li	a0,-1
}
    80002756:	6422                	ld	s0,8(sp)
    80002758:	0141                	addi	sp,sp,16
    8000275a:	8082                	ret
  for (int i = 0; i < MAX_PSYC_PAGES; i++)
    8000275c:	4501                	li	a0,0
    8000275e:	bfe5                	j	80002756 <get_next_free_space+0x22>

0000000080002760 <get_index_in_page_info_array>:

// Get file vm and return file entery inside swap file if exist
int get_index_in_page_info_array(uint64 va, struct page_info *arr)
{
    80002760:	1141                	addi	sp,sp,-16
    80002762:	e422                	sd	s0,8(sp)
    80002764:	0800                	addi	s0,sp,16
  uint64 rva = PGROUNDDOWN(va);
    80002766:	777d                	lui	a4,0xfffff
    80002768:	8f69                	and	a4,a4,a0
  for (int i = 0; i < MAX_PSYC_PAGES; i++)
    8000276a:	4501                	li	a0,0
    8000276c:	46c1                	li	a3,16
  {
    struct page_info *po = &arr[i];
    if (po->va == rva)
    8000276e:	619c                	ld	a5,0(a1)
    80002770:	00e78763          	beq	a5,a4,8000277e <get_index_in_page_info_array+0x1e>
  for (int i = 0; i < MAX_PSYC_PAGES; i++)
    80002774:	2505                	addiw	a0,a0,1
    80002776:	05e1                	addi	a1,a1,24
    80002778:	fed51be3          	bne	a0,a3,8000276e <get_index_in_page_info_array+0xe>
    {
      return i;
    }
  }
  return -1; // if not found return null
    8000277c:	557d                	li	a0,-1
}
    8000277e:	6422                	ld	s0,8(sp)
    80002780:	0141                	addi	sp,sp,16
    80002782:	8082                	ret

0000000080002784 <page_out>:
//  free physical memory of page which virtual address va
//  write this page to procs swap file
//  return the new free physical address
uint64
page_out(uint64 va)
{
    80002784:	7179                	addi	sp,sp,-48
    80002786:	f406                	sd	ra,40(sp)
    80002788:	f022                	sd	s0,32(sp)
    8000278a:	ec26                	sd	s1,24(sp)
    8000278c:	e84a                	sd	s2,16(sp)
    8000278e:	e44e                	sd	s3,8(sp)
    80002790:	e052                	sd	s4,0(sp)
    80002792:	1800                	addi	s0,sp,48
    80002794:	84aa                	mv	s1,a0
  struct proc *p = myproc();
    80002796:	fffff097          	auipc	ra,0xfffff
    8000279a:	59c080e7          	jalr	1436(ra) # 80001d32 <myproc>
    8000279e:	8a2a                	mv	s4,a0

  uint64 rva = PGROUNDDOWN(va);
    800027a0:	797d                	lui	s2,0xfffff
    800027a2:	0124f933          	and	s2,s1,s2

  // find the addrres of the page which sent out
  pte_t *pte = walk(p->pagetable, va, 0);
    800027a6:	4601                	li	a2,0
    800027a8:	85a6                	mv	a1,s1
    800027aa:	6928                	ld	a0,80(a0)
    800027ac:	ffffe097          	auipc	ra,0xffffe
    800027b0:	7fa080e7          	jalr	2042(ra) # 80000fa6 <walk>
    800027b4:	89aa                	mv	s3,a0
  uint64 pa = PTE2PA(*pte);
    800027b6:	6104                	ld	s1,0(a0)

  // insert the page to the swap file

  int page_index = insert_page_to_swap_file(rva);
    800027b8:	854a                	mv	a0,s2
    800027ba:	fffff097          	auipc	ra,0xfffff
    800027be:	dc4080e7          	jalr	-572(ra) # 8000157e <insert_page_to_swap_file>

  int start_offset = page_index * PGSIZE;
  if (page_index < 0 || page_index >= MAX_PSYC_PAGES)
    800027c2:	0005079b          	sext.w	a5,a0
    800027c6:	473d                	li	a4,15
    800027c8:	04f76d63          	bltu	a4,a5,80002822 <page_out+0x9e>
    800027cc:	80a9                	srli	s1,s1,0xa
    800027ce:	04b2                	slli	s1,s1,0xc
    800027d0:	00c5161b          	slliw	a2,a0,0xc
    panic("fadge no free index in page_out");

  writeToSwapFile(p, (char *)pa, start_offset, PGSIZE); // Write page to swap file
    800027d4:	6685                	lui	a3,0x1
    800027d6:	2601                	sext.w	a2,a2
    800027d8:	85a6                	mv	a1,s1
    800027da:	8552                	mv	a0,s4
    800027dc:	00002097          	auipc	ra,0x2
    800027e0:	3d4080e7          	jalr	980(ra) # 80004bb0 <writeToSwapFile>

  // Update the ram info struct
  remove_page_from_physical_memory(rva);
    800027e4:	854a                	mv	a0,s2
    800027e6:	fffff097          	auipc	ra,0xfffff
    800027ea:	ec2080e7          	jalr	-318(ra) # 800016a8 <remove_page_from_physical_memory>
  p->physical_pages_num--;
    800027ee:	170a2783          	lw	a5,368(s4)
    800027f2:	37fd                	addiw	a5,a5,-1
    800027f4:	16fa2823          	sw	a5,368(s4)

  // free space in physical memory
  kfree((void *)pa);
    800027f8:	8526                	mv	a0,s1
    800027fa:	ffffe097          	auipc	ra,0xffffe
    800027fe:	1dc080e7          	jalr	476(ra) # 800009d6 <kfree>

  *pte &= ~PTE_V; // page table entry now invalid
    80002802:	0009b783          	ld	a5,0(s3)
    80002806:	9bf9                	andi	a5,a5,-2
  *pte |= PTE_PG; // paged out to secondary storage
    80002808:	2007e793          	ori	a5,a5,512
    8000280c:	00f9b023          	sd	a5,0(s3)

  return pa;
}
    80002810:	8526                	mv	a0,s1
    80002812:	70a2                	ld	ra,40(sp)
    80002814:	7402                	ld	s0,32(sp)
    80002816:	64e2                	ld	s1,24(sp)
    80002818:	6942                	ld	s2,16(sp)
    8000281a:	69a2                	ld	s3,8(sp)
    8000281c:	6a02                	ld	s4,0(sp)
    8000281e:	6145                	addi	sp,sp,48
    80002820:	8082                	ret
    panic("fadge no free index in page_out");
    80002822:	00007517          	auipc	a0,0x7
    80002826:	c6650513          	addi	a0,a0,-922 # 80009488 <digits+0x448>
    8000282a:	ffffe097          	auipc	ra,0xffffe
    8000282e:	d00080e7          	jalr	-768(ra) # 8000052a <panic>

0000000080002832 <page_in>:

// move page from swap file to physical memory
pte_t *
page_in(uint64 va, pte_t *pte)
{
    80002832:	7139                	addi	sp,sp,-64
    80002834:	fc06                	sd	ra,56(sp)
    80002836:	f822                	sd	s0,48(sp)
    80002838:	f426                	sd	s1,40(sp)
    8000283a:	f04a                	sd	s2,32(sp)
    8000283c:	ec4e                	sd	s3,24(sp)
    8000283e:	e852                	sd	s4,16(sp)
    80002840:	e456                	sd	s5,8(sp)
    80002842:	e05a                	sd	s6,0(sp)
    80002844:	0080                	addi	s0,sp,64
    80002846:	8b2a                	mv	s6,a0
    80002848:	892e                	mv	s2,a1
  uint64 pa;
  struct proc *p = myproc();
    8000284a:	fffff097          	auipc	ra,0xfffff
    8000284e:	4e8080e7          	jalr	1256(ra) # 80001d32 <myproc>
    80002852:	89aa                	mv	s3,a0
  uint64 rva = PGROUNDDOWN(va);
    80002854:	7afd                	lui	s5,0xfffff
    80002856:	015b7ab3          	and	s5,s6,s5
  // update swap info
  int swap_old_index = remove_page_from_swap_file(rva);
    8000285a:	8556                	mv	a0,s5
    8000285c:	fffff097          	auipc	ra,0xfffff
    80002860:	eb4080e7          	jalr	-332(ra) # 80001710 <remove_page_from_swap_file>

  if (swap_old_index < 0)
    80002864:	08054063          	bltz	a0,800028e4 <page_in+0xb2>
    80002868:	8a2a                	mv	s4,a0
    panic("page_in: index in swap file not found");

  // alloc page in physical memory
  if ((pa = (uint64)kalloc()) == 0)
    8000286a:	ffffe097          	auipc	ra,0xffffe
    8000286e:	268080e7          	jalr	616(ra) # 80000ad2 <kalloc>
    80002872:	84aa                	mv	s1,a0
    80002874:	c141                	beqz	a0,800028f4 <page_in+0xc2>
  {
    printf("retrievingpage: kalloc failed\n");
    return 0;
  }

  mappages(p->pagetable, va, PGSIZE, (uint64)pa, PTE_FLAGS(*pte));
    80002876:	00093703          	ld	a4,0(s2) # fffffffffffff000 <end+0xffffffff7ffcc000>
    8000287a:	3ff77713          	andi	a4,a4,1023
    8000287e:	86aa                	mv	a3,a0
    80002880:	6605                	lui	a2,0x1
    80002882:	85da                	mv	a1,s6
    80002884:	0509b503          	ld	a0,80(s3)
    80002888:	fffff097          	auipc	ra,0xfffff
    8000288c:	832080e7          	jalr	-1998(ra) # 800010ba <mappages>

  // update physc info
  insert_page_to_physical_memory(rva);
    80002890:	8556                	mv	a0,s5
    80002892:	fffff097          	auipc	ra,0xfffff
    80002896:	d6c080e7          	jalr	-660(ra) # 800015fe <insert_page_to_physical_memory>
  p->physical_pages_num++;
    8000289a:	1709a783          	lw	a5,368(s3)
    8000289e:	2785                	addiw	a5,a5,1
    800028a0:	16f9a823          	sw	a5,368(s3)

  // Write to swap file
  int start_offset = swap_old_index * PGSIZE;
  readFromSwapFile(p, (char *)pa, start_offset, PGSIZE);
    800028a4:	6685                	lui	a3,0x1
    800028a6:	00ca161b          	slliw	a2,s4,0xc
    800028aa:	85a6                	mv	a1,s1
    800028ac:	854e                	mv	a0,s3
    800028ae:	00002097          	auipc	ra,0x2
    800028b2:	326080e7          	jalr	806(ra) # 80004bd4 <readFromSwapFile>

  // update pte
  if (!(*pte & PTE_PG))
    800028b6:	00093783          	ld	a5,0(s2)
    800028ba:	2007f713          	andi	a4,a5,512
    800028be:	c721                	beqz	a4,80002906 <page_in+0xd4>
    panic("page in: page out flag was off");
  *pte = (*pte | PTE_V) & (~PTE_PG);
    800028c0:	dfe7f793          	andi	a5,a5,-514
    800028c4:	0017e793          	ori	a5,a5,1
    800028c8:	00f93023          	sd	a5,0(s2)

  return pte;
    800028cc:	84ca                	mv	s1,s2
}
    800028ce:	8526                	mv	a0,s1
    800028d0:	70e2                	ld	ra,56(sp)
    800028d2:	7442                	ld	s0,48(sp)
    800028d4:	74a2                	ld	s1,40(sp)
    800028d6:	7902                	ld	s2,32(sp)
    800028d8:	69e2                	ld	s3,24(sp)
    800028da:	6a42                	ld	s4,16(sp)
    800028dc:	6aa2                	ld	s5,8(sp)
    800028de:	6b02                	ld	s6,0(sp)
    800028e0:	6121                	addi	sp,sp,64
    800028e2:	8082                	ret
    panic("page_in: index in swap file not found");
    800028e4:	00007517          	auipc	a0,0x7
    800028e8:	bc450513          	addi	a0,a0,-1084 # 800094a8 <digits+0x468>
    800028ec:	ffffe097          	auipc	ra,0xffffe
    800028f0:	c3e080e7          	jalr	-962(ra) # 8000052a <panic>
    printf("retrievingpage: kalloc failed\n");
    800028f4:	00007517          	auipc	a0,0x7
    800028f8:	bdc50513          	addi	a0,a0,-1060 # 800094d0 <digits+0x490>
    800028fc:	ffffe097          	auipc	ra,0xffffe
    80002900:	c78080e7          	jalr	-904(ra) # 80000574 <printf>
    return 0;
    80002904:	b7e9                	j	800028ce <page_in+0x9c>
    panic("page in: page out flag was off");
    80002906:	00007517          	auipc	a0,0x7
    8000290a:	bea50513          	addi	a0,a0,-1046 # 800094f0 <digits+0x4b0>
    8000290e:	ffffe097          	auipc	ra,0xffffe
    80002912:	c1c080e7          	jalr	-996(ra) # 8000052a <panic>

0000000080002916 <copyFilesInfo>:

void copyFilesInfo(struct proc *p, struct proc *np)
{
    80002916:	7139                	addi	sp,sp,-64
    80002918:	fc06                	sd	ra,56(sp)
    8000291a:	f822                	sd	s0,48(sp)
    8000291c:	f426                	sd	s1,40(sp)
    8000291e:	f04a                	sd	s2,32(sp)
    80002920:	ec4e                	sd	s3,24(sp)
    80002922:	e852                	sd	s4,16(sp)
    80002924:	e456                	sd	s5,8(sp)
    80002926:	e05a                	sd	s6,0(sp)
    80002928:	0080                	addi	s0,sp,64
    8000292a:	89aa                	mv	s3,a0
    8000292c:	84ae                	mv	s1,a1
  // Copy swapfile
  void *temp_page;

  if (!(temp_page = kalloc()))
    8000292e:	ffffe097          	auipc	ra,0xffffe
    80002932:	1a4080e7          	jalr	420(ra) # 80000ad2 <kalloc>
    80002936:	8b2a                	mv	s6,a0
    panic("copyFilesInfo: kalloc failed");

  for (int i = 0; i < MAX_PSYC_PAGES; i++)
    80002938:	4901                	li	s2,0
    8000293a:	4a41                	li	s4,16
  if (!(temp_page = kalloc()))
    8000293c:	e505                	bnez	a0,80002964 <copyFilesInfo+0x4e>
    panic("copyFilesInfo: kalloc failed");
    8000293e:	00007517          	auipc	a0,0x7
    80002942:	bd250513          	addi	a0,a0,-1070 # 80009510 <digits+0x4d0>
    80002946:	ffffe097          	auipc	ra,0xffffe
    8000294a:	be4080e7          	jalr	-1052(ra) # 8000052a <panic>
    if (p->pages_swap_info.free_spaces & (1 << i))
    {
      int res = readFromSwapFile(p, (char *)temp_page, i * PGSIZE, PGSIZE);

      if (res < 0)
        panic("copyFilesInfo: failed read");
    8000294e:	00007517          	auipc	a0,0x7
    80002952:	be250513          	addi	a0,a0,-1054 # 80009530 <digits+0x4f0>
    80002956:	ffffe097          	auipc	ra,0xffffe
    8000295a:	bd4080e7          	jalr	-1068(ra) # 8000052a <panic>
  for (int i = 0; i < MAX_PSYC_PAGES; i++)
    8000295e:	2905                	addiw	s2,s2,1
    80002960:	05490663          	beq	s2,s4,800029ac <copyFilesInfo+0x96>
    if (p->pages_swap_info.free_spaces & (1 << i))
    80002964:	1789d783          	lhu	a5,376(s3)
    80002968:	4127d7bb          	sraw	a5,a5,s2
    8000296c:	8b85                	andi	a5,a5,1
    8000296e:	dbe5                	beqz	a5,8000295e <copyFilesInfo+0x48>
      int res = readFromSwapFile(p, (char *)temp_page, i * PGSIZE, PGSIZE);
    80002970:	00c91a9b          	slliw	s5,s2,0xc
    80002974:	6685                	lui	a3,0x1
    80002976:	8656                	mv	a2,s5
    80002978:	85da                	mv	a1,s6
    8000297a:	854e                	mv	a0,s3
    8000297c:	00002097          	auipc	ra,0x2
    80002980:	258080e7          	jalr	600(ra) # 80004bd4 <readFromSwapFile>
      if (res < 0)
    80002984:	fc0545e3          	bltz	a0,8000294e <copyFilesInfo+0x38>

      res = writeToSwapFile(np, temp_page, i * PGSIZE, PGSIZE);
    80002988:	6685                	lui	a3,0x1
    8000298a:	8656                	mv	a2,s5
    8000298c:	85da                	mv	a1,s6
    8000298e:	8526                	mv	a0,s1
    80002990:	00002097          	auipc	ra,0x2
    80002994:	220080e7          	jalr	544(ra) # 80004bb0 <writeToSwapFile>

      if (res < 0)
    80002998:	fc0553e3          	bgez	a0,8000295e <copyFilesInfo+0x48>
        panic("copyFilesInfo: faild write ");
    8000299c:	00007517          	auipc	a0,0x7
    800029a0:	bb450513          	addi	a0,a0,-1100 # 80009550 <digits+0x510>
    800029a4:	ffffe097          	auipc	ra,0xffffe
    800029a8:	b86080e7          	jalr	-1146(ra) # 8000052a <panic>
    }
  }

  kfree(temp_page);
    800029ac:	855a                	mv	a0,s6
    800029ae:	ffffe097          	auipc	ra,0xffffe
    800029b2:	028080e7          	jalr	40(ra) # 800009d6 <kfree>

  // Copy swap and ram structs
  np->pages_swap_info.free_spaces = p->pages_swap_info.free_spaces;
    800029b6:	1789d783          	lhu	a5,376(s3)
    800029ba:	16f49c23          	sh	a5,376(s1)
  np->pages_physc_info.free_spaces = p->pages_physc_info.free_spaces;
    800029be:	3009d783          	lhu	a5,768(s3)
    800029c2:	30f49023          	sh	a5,768(s1)

  for (int i = 0; i < MAX_PSYC_PAGES; i++)
    800029c6:	18098793          	addi	a5,s3,384
    800029ca:	18048593          	addi	a1,s1,384
    800029ce:	30098993          	addi	s3,s3,768
  {
    np->pages_swap_info.pages[i] = p->pages_swap_info.pages[i];
    800029d2:	6398                	ld	a4,0(a5)
    800029d4:	e198                	sd	a4,0(a1)
    800029d6:	6798                	ld	a4,8(a5)
    800029d8:	e598                	sd	a4,8(a1)
    800029da:	6b98                	ld	a4,16(a5)
    800029dc:	e998                	sd	a4,16(a1)
    np->pages_physc_info.pages[i] = p->pages_physc_info.pages[i];
    800029de:	1887b703          	ld	a4,392(a5)
    800029e2:	18e5b423          	sd	a4,392(a1)
    800029e6:	1907b703          	ld	a4,400(a5)
    800029ea:	18e5b823          	sd	a4,400(a1)
    800029ee:	1987b703          	ld	a4,408(a5)
    800029f2:	18e5bc23          	sd	a4,408(a1)
  for (int i = 0; i < MAX_PSYC_PAGES; i++)
    800029f6:	07e1                	addi	a5,a5,24
    800029f8:	05e1                	addi	a1,a1,24
    800029fa:	fd379ce3          	bne	a5,s3,800029d2 <copyFilesInfo+0xbc>
  }
}
    800029fe:	70e2                	ld	ra,56(sp)
    80002a00:	7442                	ld	s0,48(sp)
    80002a02:	74a2                	ld	s1,40(sp)
    80002a04:	7902                	ld	s2,32(sp)
    80002a06:	69e2                	ld	s3,24(sp)
    80002a08:	6a42                	ld	s4,16(sp)
    80002a0a:	6aa2                	ld	s5,8(sp)
    80002a0c:	6b02                	ld	s6,0(sp)
    80002a0e:	6121                	addi	sp,sp,64
    80002a10:	8082                	ret

0000000080002a12 <fork>:
{
    80002a12:	7139                	addi	sp,sp,-64
    80002a14:	fc06                	sd	ra,56(sp)
    80002a16:	f822                	sd	s0,48(sp)
    80002a18:	f426                	sd	s1,40(sp)
    80002a1a:	f04a                	sd	s2,32(sp)
    80002a1c:	ec4e                	sd	s3,24(sp)
    80002a1e:	e852                	sd	s4,16(sp)
    80002a20:	e456                	sd	s5,8(sp)
    80002a22:	0080                	addi	s0,sp,64
  struct proc *p = myproc();
    80002a24:	fffff097          	auipc	ra,0xfffff
    80002a28:	30e080e7          	jalr	782(ra) # 80001d32 <myproc>
    80002a2c:	8aaa                	mv	s5,a0
  if ((np = allocproc()) == 0)
    80002a2e:	fffff097          	auipc	ra,0xfffff
    80002a32:	512080e7          	jalr	1298(ra) # 80001f40 <allocproc>
    80002a36:	12050f63          	beqz	a0,80002b74 <fork+0x162>
    80002a3a:	89aa                	mv	s3,a0
  if (uvmcopy(p->pagetable, np->pagetable, p->sz) < 0)
    80002a3c:	048ab603          	ld	a2,72(s5) # fffffffffffff048 <end+0xffffffff7ffcc048>
    80002a40:	692c                	ld	a1,80(a0)
    80002a42:	050ab503          	ld	a0,80(s5)
    80002a46:	fffff097          	auipc	ra,0xfffff
    80002a4a:	082080e7          	jalr	130(ra) # 80001ac8 <uvmcopy>
    80002a4e:	04054863          	bltz	a0,80002a9e <fork+0x8c>
  np->sz = p->sz;
    80002a52:	048ab783          	ld	a5,72(s5)
    80002a56:	04f9b423          	sd	a5,72(s3)
  *(np->trapframe) = *(p->trapframe);
    80002a5a:	058ab683          	ld	a3,88(s5)
    80002a5e:	87b6                	mv	a5,a3
    80002a60:	0589b703          	ld	a4,88(s3)
    80002a64:	12068693          	addi	a3,a3,288 # 1120 <_entry-0x7fffeee0>
    80002a68:	0007b803          	ld	a6,0(a5)
    80002a6c:	6788                	ld	a0,8(a5)
    80002a6e:	6b8c                	ld	a1,16(a5)
    80002a70:	6f90                	ld	a2,24(a5)
    80002a72:	01073023          	sd	a6,0(a4) # fffffffffffff000 <end+0xffffffff7ffcc000>
    80002a76:	e708                	sd	a0,8(a4)
    80002a78:	eb0c                	sd	a1,16(a4)
    80002a7a:	ef10                	sd	a2,24(a4)
    80002a7c:	02078793          	addi	a5,a5,32
    80002a80:	02070713          	addi	a4,a4,32
    80002a84:	fed792e3          	bne	a5,a3,80002a68 <fork+0x56>
  np->trapframe->a0 = 0;
    80002a88:	0589b783          	ld	a5,88(s3)
    80002a8c:	0607b823          	sd	zero,112(a5)
  for (i = 0; i < NOFILE; i++)
    80002a90:	0d0a8493          	addi	s1,s5,208
    80002a94:	0d098913          	addi	s2,s3,208
    80002a98:	150a8a13          	addi	s4,s5,336
    80002a9c:	a00d                	j	80002abe <fork+0xac>
    freeproc(np);
    80002a9e:	854e                	mv	a0,s3
    80002aa0:	fffff097          	auipc	ra,0xfffff
    80002aa4:	444080e7          	jalr	1092(ra) # 80001ee4 <freeproc>
    release(&np->lock);
    80002aa8:	854e                	mv	a0,s3
    80002aaa:	ffffe097          	auipc	ra,0xffffe
    80002aae:	1cc080e7          	jalr	460(ra) # 80000c76 <release>
    return -1;
    80002ab2:	597d                	li	s2,-1
    80002ab4:	a075                	j	80002b60 <fork+0x14e>
  for (i = 0; i < NOFILE; i++)
    80002ab6:	04a1                	addi	s1,s1,8
    80002ab8:	0921                	addi	s2,s2,8
    80002aba:	01448b63          	beq	s1,s4,80002ad0 <fork+0xbe>
    if (p->ofile[i])
    80002abe:	6088                	ld	a0,0(s1)
    80002ac0:	d97d                	beqz	a0,80002ab6 <fork+0xa4>
      np->ofile[i] = filedup(p->ofile[i]);
    80002ac2:	00002097          	auipc	ra,0x2
    80002ac6:	796080e7          	jalr	1942(ra) # 80005258 <filedup>
    80002aca:	00a93023          	sd	a0,0(s2)
    80002ace:	b7e5                	j	80002ab6 <fork+0xa4>
  np->cwd = idup(p->cwd);
    80002ad0:	150ab503          	ld	a0,336(s5)
    80002ad4:	00001097          	auipc	ra,0x1
    80002ad8:	5e4080e7          	jalr	1508(ra) # 800040b8 <idup>
    80002adc:	14a9b823          	sd	a0,336(s3)
  safestrcpy(np->name, p->name, sizeof(p->name));
    80002ae0:	4641                	li	a2,16
    80002ae2:	158a8593          	addi	a1,s5,344
    80002ae6:	15898513          	addi	a0,s3,344
    80002aea:	ffffe097          	auipc	ra,0xffffe
    80002aee:	326080e7          	jalr	806(ra) # 80000e10 <safestrcpy>
  pid = np->pid;
    80002af2:	0309a903          	lw	s2,48(s3)
  release(&np->lock);
    80002af6:	854e                	mv	a0,s3
    80002af8:	ffffe097          	auipc	ra,0xffffe
    80002afc:	17e080e7          	jalr	382(ra) # 80000c76 <release>
  createSwapFile(np);
    80002b00:	854e                	mv	a0,s3
    80002b02:	00002097          	auipc	ra,0x2
    80002b06:	ffe080e7          	jalr	-2(ra) # 80004b00 <createSwapFile>
  copyFilesInfo(p, np); // TODO: check we need to this for father 1,2
    80002b0a:	85ce                	mv	a1,s3
    80002b0c:	8556                	mv	a0,s5
    80002b0e:	00000097          	auipc	ra,0x0
    80002b12:	e08080e7          	jalr	-504(ra) # 80002916 <copyFilesInfo>
  np->physical_pages_num = p->physical_pages_num;
    80002b16:	170aa783          	lw	a5,368(s5)
    80002b1a:	16f9a823          	sw	a5,368(s3)
  np->total_pages_num = p->total_pages_num;
    80002b1e:	174aa783          	lw	a5,372(s5)
    80002b22:	16f9aa23          	sw	a5,372(s3)
  acquire(&wait_lock);
    80002b26:	0000f497          	auipc	s1,0xf
    80002b2a:	79248493          	addi	s1,s1,1938 # 800122b8 <wait_lock>
    80002b2e:	8526                	mv	a0,s1
    80002b30:	ffffe097          	auipc	ra,0xffffe
    80002b34:	092080e7          	jalr	146(ra) # 80000bc2 <acquire>
  np->parent = p;
    80002b38:	0359bc23          	sd	s5,56(s3)
  release(&wait_lock);
    80002b3c:	8526                	mv	a0,s1
    80002b3e:	ffffe097          	auipc	ra,0xffffe
    80002b42:	138080e7          	jalr	312(ra) # 80000c76 <release>
  acquire(&np->lock);
    80002b46:	854e                	mv	a0,s3
    80002b48:	ffffe097          	auipc	ra,0xffffe
    80002b4c:	07a080e7          	jalr	122(ra) # 80000bc2 <acquire>
  np->state = RUNNABLE;
    80002b50:	478d                	li	a5,3
    80002b52:	00f9ac23          	sw	a5,24(s3)
  release(&np->lock);
    80002b56:	854e                	mv	a0,s3
    80002b58:	ffffe097          	auipc	ra,0xffffe
    80002b5c:	11e080e7          	jalr	286(ra) # 80000c76 <release>
}
    80002b60:	854a                	mv	a0,s2
    80002b62:	70e2                	ld	ra,56(sp)
    80002b64:	7442                	ld	s0,48(sp)
    80002b66:	74a2                	ld	s1,40(sp)
    80002b68:	7902                	ld	s2,32(sp)
    80002b6a:	69e2                	ld	s3,24(sp)
    80002b6c:	6a42                	ld	s4,16(sp)
    80002b6e:	6aa2                	ld	s5,8(sp)
    80002b70:	6121                	addi	sp,sp,64
    80002b72:	8082                	ret
    return -1;
    80002b74:	597d                	li	s2,-1
    80002b76:	b7ed                	j	80002b60 <fork+0x14e>

0000000080002b78 <NFUA_compare>:
  return selected_pg_index;
}

long NFUA_compare(struct page_info *pg1, struct page_info *pg2)
{
  if (!pg1 || !pg2)
    80002b78:	c511                	beqz	a0,80002b84 <NFUA_compare+0xc>
    80002b7a:	c589                	beqz	a1,80002b84 <NFUA_compare+0xc>
    panic("NFUA_compare : null input");
  return pg1->aging_counter - pg2->aging_counter;
    80002b7c:	6508                	ld	a0,8(a0)
    80002b7e:	659c                	ld	a5,8(a1)
}
    80002b80:	8d1d                	sub	a0,a0,a5
    80002b82:	8082                	ret
{
    80002b84:	1141                	addi	sp,sp,-16
    80002b86:	e406                	sd	ra,8(sp)
    80002b88:	e022                	sd	s0,0(sp)
    80002b8a:	0800                	addi	s0,sp,16
    panic("NFUA_compare : null input");
    80002b8c:	00007517          	auipc	a0,0x7
    80002b90:	9e450513          	addi	a0,a0,-1564 # 80009570 <digits+0x530>
    80002b94:	ffffe097          	auipc	ra,0xffffe
    80002b98:	996080e7          	jalr	-1642(ra) # 8000052a <panic>

0000000080002b9c <SCFIFO_compare>:
  return res;
}

int SCFIFO_compare(struct page_info *pg1, struct page_info *pg2)
{
  if (!pg1 || !pg2)
    80002b9c:	c511                	beqz	a0,80002ba8 <SCFIFO_compare+0xc>
    80002b9e:	c589                	beqz	a1,80002ba8 <SCFIFO_compare+0xc>
    panic("SCFIFO_compare : null input");

  return pg1->time_inserted - pg2->time_inserted;
    80002ba0:	4908                	lw	a0,16(a0)
    80002ba2:	499c                	lw	a5,16(a1)
}
    80002ba4:	9d1d                	subw	a0,a0,a5
    80002ba6:	8082                	ret
{
    80002ba8:	1141                	addi	sp,sp,-16
    80002baa:	e406                	sd	ra,8(sp)
