
user/_kill:     file format elf64-littleriscv


Disassembly of section .text:

0000000000000000 <main>:
#include "kernel/stat.h"
#include "user/user.h"

int
main(int argc, char **argv)
{
   0:	1101                	addi	sp,sp,-32
   2:	ec06                	sd	ra,24(sp)
   4:	e822                	sd	s0,16(sp)
   6:	e426                	sd	s1,8(sp)
   8:	e04a                	sd	s2,0(sp)
   a:	1000                	addi	s0,sp,32
  int i;

  if(argc < 2){
   c:	4785                	li	a5,1
   e:	02a7de63          	bge	a5,a0,4a <main+0x4a>
  12:	00858493          	addi	s1,a1,8
  16:	ffe5091b          	addiw	s2,a0,-2
  1a:	02091793          	slli	a5,s2,0x20
  1e:	01d7d913          	srli	s2,a5,0x1d
  22:	05c1                	addi	a1,a1,16
  24:	992e                	add	s2,s2,a1
    fprintf(2, "usage: kill pid...\n");
    exit(1);
  }
  for(i=1; i<argc; i++)
    kill(atoi(argv[i]),SIGKILL);
  26:	6088                	ld	a0,0(s1)
  28:	00000097          	auipc	ra,0x0
  2c:	1b0080e7          	jalr	432(ra) # 1d8 <atoi>
  30:	45a5                	li	a1,9
  32:	00000097          	auipc	ra,0x0
  36:	2d2080e7          	jalr	722(ra) # 304 <kill>
  for(i=1; i<argc; i++)
  3a:	04a1                	addi	s1,s1,8
  3c:	ff2495e3          	bne	s1,s2,26 <main+0x26>
  exit(0);
  40:	4501                	li	a0,0
  42:	00000097          	auipc	ra,0x0
  46:	292080e7          	jalr	658(ra) # 2d4 <exit>
    fprintf(2, "usage: kill pid...\n");
  4a:	00001597          	auipc	a1,0x1
  4e:	96658593          	addi	a1,a1,-1690 # 9b0 <csem_free+0x3e>
  52:	4509                	li	a0,2
  54:	00000097          	auipc	ra,0x0
  58:	624080e7          	jalr	1572(ra) # 678 <fprintf>
    exit(1);
  5c:	4505                	li	a0,1
  5e:	00000097          	auipc	ra,0x0
  62:	276080e7          	jalr	630(ra) # 2d4 <exit>

0000000000000066 <strcpy>:
#include "kernel/fcntl.h"
#include "user/user.h"

char*
strcpy(char *s, const char *t)
{
  66:	1141                	addi	sp,sp,-16
  68:	e422                	sd	s0,8(sp)
  6a:	0800                	addi	s0,sp,16
  char *os;

  os = s;
  while((*s++ = *t++) != 0)
  6c:	87aa                	mv	a5,a0
  6e:	0585                	addi	a1,a1,1
  70:	0785                	addi	a5,a5,1
  72:	fff5c703          	lbu	a4,-1(a1)
  76:	fee78fa3          	sb	a4,-1(a5)
  7a:	fb75                	bnez	a4,6e <strcpy+0x8>
    ;
  return os;
}
  7c:	6422                	ld	s0,8(sp)
  7e:	0141                	addi	sp,sp,16
  80:	8082                	ret

0000000000000082 <strcmp>:

int
strcmp(const char *p, const char *q)
{
  82:	1141                	addi	sp,sp,-16
  84:	e422                	sd	s0,8(sp)
  86:	0800                	addi	s0,sp,16
  while(*p && *p == *q)
  88:	00054783          	lbu	a5,0(a0)
  8c:	cb91                	beqz	a5,a0 <strcmp+0x1e>
  8e:	0005c703          	lbu	a4,0(a1)
  92:	00f71763          	bne	a4,a5,a0 <strcmp+0x1e>
    p++, q++;
  96:	0505                	addi	a0,a0,1
  98:	0585                	addi	a1,a1,1
  while(*p && *p == *q)
  9a:	00054783          	lbu	a5,0(a0)
  9e:	fbe5                	bnez	a5,8e <strcmp+0xc>
  return (uchar)*p - (uchar)*q;
  a0:	0005c503          	lbu	a0,0(a1)
}
  a4:	40a7853b          	subw	a0,a5,a0
  a8:	6422                	ld	s0,8(sp)
  aa:	0141                	addi	sp,sp,16
  ac:	8082                	ret

00000000000000ae <strlen>:

uint
strlen(const char *s)
{
  ae:	1141                	addi	sp,sp,-16
  b0:	e422                	sd	s0,8(sp)
  b2:	0800                	addi	s0,sp,16
  int n;

  for(n = 0; s[n]; n++)
  b4:	00054783          	lbu	a5,0(a0)
  b8:	cf91                	beqz	a5,d4 <strlen+0x26>
  ba:	0505                	addi	a0,a0,1
  bc:	87aa                	mv	a5,a0
  be:	4685                	li	a3,1
  c0:	9e89                	subw	a3,a3,a0
  c2:	00f6853b          	addw	a0,a3,a5
  c6:	0785                	addi	a5,a5,1
  c8:	fff7c703          	lbu	a4,-1(a5)
  cc:	fb7d                	bnez	a4,c2 <strlen+0x14>
    ;
  return n;
}
  ce:	6422                	ld	s0,8(sp)
  d0:	0141                	addi	sp,sp,16
  d2:	8082                	ret
  for(n = 0; s[n]; n++)
  d4:	4501                	li	a0,0
  d6:	bfe5                	j	ce <strlen+0x20>

00000000000000d8 <memset>:

void*
memset(void *dst, int c, uint n)
{
  d8:	1141                	addi	sp,sp,-16
  da:	e422                	sd	s0,8(sp)
  dc:	0800                	addi	s0,sp,16
  char *cdst = (char *) dst;
  int i;
  for(i = 0; i < n; i++){
  de:	ca19                	beqz	a2,f4 <memset+0x1c>
  e0:	87aa                	mv	a5,a0
  e2:	1602                	slli	a2,a2,0x20
  e4:	9201                	srli	a2,a2,0x20
  e6:	00a60733          	add	a4,a2,a0
    cdst[i] = c;
  ea:	00b78023          	sb	a1,0(a5)
  for(i = 0; i < n; i++){
  ee:	0785                	addi	a5,a5,1
  f0:	fee79de3          	bne	a5,a4,ea <memset+0x12>
  }
  return dst;
}
  f4:	6422                	ld	s0,8(sp)
  f6:	0141                	addi	sp,sp,16
  f8:	8082                	ret

00000000000000fa <strchr>:

char*
strchr(const char *s, char c)
{
  fa:	1141                	addi	sp,sp,-16
  fc:	e422                	sd	s0,8(sp)
  fe:	0800                	addi	s0,sp,16
  for(; *s; s++)
 100:	00054783          	lbu	a5,0(a0)
 104:	cb99                	beqz	a5,11a <strchr+0x20>
    if(*s == c)
 106:	00f58763          	beq	a1,a5,114 <strchr+0x1a>
  for(; *s; s++)
 10a:	0505                	addi	a0,a0,1
 10c:	00054783          	lbu	a5,0(a0)
 110:	fbfd                	bnez	a5,106 <strchr+0xc>
      return (char*)s;
  return 0;
 112:	4501                	li	a0,0
}
 114:	6422                	ld	s0,8(sp)
 116:	0141                	addi	sp,sp,16
 118:	8082                	ret
  return 0;
 11a:	4501                	li	a0,0
 11c:	bfe5                	j	114 <strchr+0x1a>

000000000000011e <gets>:

char*
gets(char *buf, int max)
{
 11e:	711d                	addi	sp,sp,-96
 120:	ec86                	sd	ra,88(sp)
 122:	e8a2                	sd	s0,80(sp)
 124:	e4a6                	sd	s1,72(sp)
 126:	e0ca                	sd	s2,64(sp)
 128:	fc4e                	sd	s3,56(sp)
 12a:	f852                	sd	s4,48(sp)
 12c:	f456                	sd	s5,40(sp)
 12e:	f05a                	sd	s6,32(sp)
 130:	ec5e                	sd	s7,24(sp)
 132:	1080                	addi	s0,sp,96
 134:	8baa                	mv	s7,a0
 136:	8a2e                	mv	s4,a1
  int i, cc;
  char c;

  for(i=0; i+1 < max; ){
 138:	892a                	mv	s2,a0
 13a:	4481                	li	s1,0
    cc = read(0, &c, 1);
    if(cc < 1)
      break;
    buf[i++] = c;
    if(c == '\n' || c == '\r')
 13c:	4aa9                	li	s5,10
 13e:	4b35                	li	s6,13
  for(i=0; i+1 < max; ){
 140:	89a6                	mv	s3,s1
 142:	2485                	addiw	s1,s1,1
 144:	0344d863          	bge	s1,s4,174 <gets+0x56>
    cc = read(0, &c, 1);
 148:	4605                	li	a2,1
 14a:	faf40593          	addi	a1,s0,-81
 14e:	4501                	li	a0,0
 150:	00000097          	auipc	ra,0x0
 154:	19c080e7          	jalr	412(ra) # 2ec <read>
    if(cc < 1)
 158:	00a05e63          	blez	a0,174 <gets+0x56>
    buf[i++] = c;
 15c:	faf44783          	lbu	a5,-81(s0)
 160:	00f90023          	sb	a5,0(s2)
    if(c == '\n' || c == '\r')
 164:	01578763          	beq	a5,s5,172 <gets+0x54>
 168:	0905                	addi	s2,s2,1
 16a:	fd679be3          	bne	a5,s6,140 <gets+0x22>
  for(i=0; i+1 < max; ){
 16e:	89a6                	mv	s3,s1
 170:	a011                	j	174 <gets+0x56>
 172:	89a6                	mv	s3,s1
      break;
  }
  buf[i] = '\0';
 174:	99de                	add	s3,s3,s7
 176:	00098023          	sb	zero,0(s3)
  return buf;
}
 17a:	855e                	mv	a0,s7
 17c:	60e6                	ld	ra,88(sp)
 17e:	6446                	ld	s0,80(sp)
 180:	64a6                	ld	s1,72(sp)
 182:	6906                	ld	s2,64(sp)
 184:	79e2                	ld	s3,56(sp)
 186:	7a42                	ld	s4,48(sp)
 188:	7aa2                	ld	s5,40(sp)
 18a:	7b02                	ld	s6,32(sp)
 18c:	6be2                	ld	s7,24(sp)
 18e:	6125                	addi	sp,sp,96
 190:	8082                	ret

0000000000000192 <stat>:

int
stat(const char *n, struct stat *st)
{
 192:	1101                	addi	sp,sp,-32
 194:	ec06                	sd	ra,24(sp)
 196:	e822                	sd	s0,16(sp)
 198:	e426                	sd	s1,8(sp)
 19a:	e04a                	sd	s2,0(sp)
 19c:	1000                	addi	s0,sp,32
 19e:	892e                	mv	s2,a1
  int fd;
  int r;

  fd = open(n, O_RDONLY);
 1a0:	4581                	li	a1,0
 1a2:	00000097          	auipc	ra,0x0
 1a6:	172080e7          	jalr	370(ra) # 314 <open>
  if(fd < 0)
 1aa:	02054563          	bltz	a0,1d4 <stat+0x42>
 1ae:	84aa                	mv	s1,a0
    return -1;
  r = fstat(fd, st);
 1b0:	85ca                	mv	a1,s2
 1b2:	00000097          	auipc	ra,0x0
 1b6:	17a080e7          	jalr	378(ra) # 32c <fstat>
 1ba:	892a                	mv	s2,a0
  close(fd);
 1bc:	8526                	mv	a0,s1
 1be:	00000097          	auipc	ra,0x0
 1c2:	13e080e7          	jalr	318(ra) # 2fc <close>
  return r;
}
 1c6:	854a                	mv	a0,s2
 1c8:	60e2                	ld	ra,24(sp)
 1ca:	6442                	ld	s0,16(sp)
 1cc:	64a2                	ld	s1,8(sp)
 1ce:	6902                	ld	s2,0(sp)
 1d0:	6105                	addi	sp,sp,32
 1d2:	8082                	ret
    return -1;
 1d4:	597d                	li	s2,-1
 1d6:	bfc5                	j	1c6 <stat+0x34>

00000000000001d8 <atoi>:

int
atoi(const char *s)
{
 1d8:	1141                	addi	sp,sp,-16
 1da:	e422                	sd	s0,8(sp)
 1dc:	0800                	addi	s0,sp,16
  int n;

  n = 0;
  while('0' <= *s && *s <= '9')
 1de:	00054603          	lbu	a2,0(a0)
 1e2:	fd06079b          	addiw	a5,a2,-48
 1e6:	0ff7f793          	zext.b	a5,a5
 1ea:	4725                	li	a4,9
 1ec:	02f76963          	bltu	a4,a5,21e <atoi+0x46>
 1f0:	86aa                	mv	a3,a0
  n = 0;
 1f2:	4501                	li	a0,0
  while('0' <= *s && *s <= '9')
 1f4:	45a5                	li	a1,9
    n = n*10 + *s++ - '0';
 1f6:	0685                	addi	a3,a3,1
 1f8:	0025179b          	slliw	a5,a0,0x2
 1fc:	9fa9                	addw	a5,a5,a0
 1fe:	0017979b          	slliw	a5,a5,0x1
 202:	9fb1                	addw	a5,a5,a2
 204:	fd07851b          	addiw	a0,a5,-48
  while('0' <= *s && *s <= '9')
 208:	0006c603          	lbu	a2,0(a3)
 20c:	fd06071b          	addiw	a4,a2,-48
 210:	0ff77713          	zext.b	a4,a4
 214:	fee5f1e3          	bgeu	a1,a4,1f6 <atoi+0x1e>
  return n;
}
 218:	6422                	ld	s0,8(sp)
 21a:	0141                	addi	sp,sp,16
 21c:	8082                	ret
  n = 0;
 21e:	4501                	li	a0,0
 220:	bfe5                	j	218 <atoi+0x40>

0000000000000222 <memmove>:

void*
memmove(void *vdst, const void *vsrc, int n)
{
 222:	1141                	addi	sp,sp,-16
 224:	e422                	sd	s0,8(sp)
 226:	0800                	addi	s0,sp,16
  char *dst;
  const char *src;

  dst = vdst;
  src = vsrc;
  if (src > dst) {
 228:	02b57463          	bgeu	a0,a1,250 <memmove+0x2e>
    while(n-- > 0)
 22c:	00c05f63          	blez	a2,24a <memmove+0x28>
 230:	1602                	slli	a2,a2,0x20
 232:	9201                	srli	a2,a2,0x20
 234:	00c507b3          	add	a5,a0,a2
  dst = vdst;
 238:	872a                	mv	a4,a0
      *dst++ = *src++;
 23a:	0585                	addi	a1,a1,1
 23c:	0705                	addi	a4,a4,1
 23e:	fff5c683          	lbu	a3,-1(a1)
 242:	fed70fa3          	sb	a3,-1(a4)
    while(n-- > 0)
 246:	fee79ae3          	bne	a5,a4,23a <memmove+0x18>
    src += n;
    while(n-- > 0)
      *--dst = *--src;
  }
  return vdst;
}
 24a:	6422                	ld	s0,8(sp)
 24c:	0141                	addi	sp,sp,16
 24e:	8082                	ret
    dst += n;
 250:	00c50733          	add	a4,a0,a2
    src += n;
 254:	95b2                	add	a1,a1,a2
    while(n-- > 0)
 256:	fec05ae3          	blez	a2,24a <memmove+0x28>
 25a:	fff6079b          	addiw	a5,a2,-1
 25e:	1782                	slli	a5,a5,0x20
 260:	9381                	srli	a5,a5,0x20
 262:	fff7c793          	not	a5,a5
 266:	97ba                	add	a5,a5,a4
      *--dst = *--src;
 268:	15fd                	addi	a1,a1,-1
 26a:	177d                	addi	a4,a4,-1
 26c:	0005c683          	lbu	a3,0(a1)
 270:	00d70023          	sb	a3,0(a4)
    while(n-- > 0)
 274:	fee79ae3          	bne	a5,a4,268 <memmove+0x46>
 278:	bfc9                	j	24a <memmove+0x28>

000000000000027a <memcmp>:

int
memcmp(const void *s1, const void *s2, uint n)
{
 27a:	1141                	addi	sp,sp,-16
 27c:	e422                	sd	s0,8(sp)
 27e:	0800                	addi	s0,sp,16
  const char *p1 = s1, *p2 = s2;
  while (n-- > 0) {
 280:	ca05                	beqz	a2,2b0 <memcmp+0x36>
 282:	fff6069b          	addiw	a3,a2,-1
 286:	1682                	slli	a3,a3,0x20
 288:	9281                	srli	a3,a3,0x20
 28a:	0685                	addi	a3,a3,1
 28c:	96aa                	add	a3,a3,a0
    if (*p1 != *p2) {
 28e:	00054783          	lbu	a5,0(a0)
 292:	0005c703          	lbu	a4,0(a1)
 296:	00e79863          	bne	a5,a4,2a6 <memcmp+0x2c>
      return *p1 - *p2;
    }
    p1++;
 29a:	0505                	addi	a0,a0,1
    p2++;
 29c:	0585                	addi	a1,a1,1
  while (n-- > 0) {
 29e:	fed518e3          	bne	a0,a3,28e <memcmp+0x14>
  }
  return 0;
 2a2:	4501                	li	a0,0
 2a4:	a019                	j	2aa <memcmp+0x30>
      return *p1 - *p2;
 2a6:	40e7853b          	subw	a0,a5,a4
}
 2aa:	6422                	ld	s0,8(sp)
 2ac:	0141                	addi	sp,sp,16
 2ae:	8082                	ret
  return 0;
 2b0:	4501                	li	a0,0
 2b2:	bfe5                	j	2aa <memcmp+0x30>

00000000000002b4 <memcpy>:

void *
memcpy(void *dst, const void *src, uint n)
{
 2b4:	1141                	addi	sp,sp,-16
 2b6:	e406                	sd	ra,8(sp)
 2b8:	e022                	sd	s0,0(sp)
 2ba:	0800                	addi	s0,sp,16
  return memmove(dst, src, n);
 2bc:	00000097          	auipc	ra,0x0
 2c0:	f66080e7          	jalr	-154(ra) # 222 <memmove>
}
 2c4:	60a2                	ld	ra,8(sp)
 2c6:	6402                	ld	s0,0(sp)
 2c8:	0141                	addi	sp,sp,16
 2ca:	8082                	ret

00000000000002cc <fork>:
# generated by usys.pl - do not edit
#include "kernel/syscall.h"
.global fork
fork:
 li a7, SYS_fork
 2cc:	4885                	li	a7,1
 ecall
 2ce:	00000073          	ecall
 ret
 2d2:	8082                	ret

00000000000002d4 <exit>:
.global exit
exit:
 li a7, SYS_exit
 2d4:	4889                	li	a7,2
 ecall
 2d6:	00000073          	ecall
 ret
 2da:	8082                	ret

00000000000002dc <wait>:
.global wait
wait:
 li a7, SYS_wait
 2dc:	488d                	li	a7,3
 ecall
 2de:	00000073          	ecall
 ret
 2e2:	8082                	ret

00000000000002e4 <pipe>:
.global pipe
pipe:
 li a7, SYS_pipe
 2e4:	4891                	li	a7,4
 ecall
 2e6:	00000073          	ecall
 ret
 2ea:	8082                	ret

00000000000002ec <read>:
.global read
read:
 li a7, SYS_read
 2ec:	4895                	li	a7,5
 ecall
 2ee:	00000073          	ecall
 ret
 2f2:	8082                	ret

00000000000002f4 <write>:
.global write
write:
 li a7, SYS_write
 2f4:	48c1                	li	a7,16
 ecall
 2f6:	00000073          	ecall
 ret
 2fa:	8082                	ret

00000000000002fc <close>:
.global close
close:
 li a7, SYS_close
 2fc:	48d5                	li	a7,21
 ecall
 2fe:	00000073          	ecall
 ret
 302:	8082                	ret

0000000000000304 <kill>:
.global kill
kill:
 li a7, SYS_kill
 304:	4899                	li	a7,6
 ecall
 306:	00000073          	ecall
 ret
 30a:	8082                	ret

000000000000030c <exec>:
.global exec
exec:
 li a7, SYS_exec
 30c:	489d                	li	a7,7
 ecall
 30e:	00000073          	ecall
 ret
 312:	8082                	ret

0000000000000314 <open>:
.global open
open:
 li a7, SYS_open
 314:	48bd                	li	a7,15
 ecall
 316:	00000073          	ecall
 ret
 31a:	8082                	ret

000000000000031c <mknod>:
.global mknod
mknod:
 li a7, SYS_mknod
 31c:	48c5                	li	a7,17
 ecall
 31e:	00000073          	ecall
 ret
 322:	8082                	ret

0000000000000324 <unlink>:
.global unlink
unlink:
 li a7, SYS_unlink
 324:	48c9                	li	a7,18
 ecall
 326:	00000073          	ecall
 ret
 32a:	8082                	ret

000000000000032c <fstat>:
.global fstat
fstat:
 li a7, SYS_fstat
 32c:	48a1                	li	a7,8
 ecall
 32e:	00000073          	ecall
 ret
 332:	8082                	ret

0000000000000334 <link>:
.global link
link:
 li a7, SYS_link
 334:	48cd                	li	a7,19
 ecall
 336:	00000073          	ecall
 ret
 33a:	8082                	ret

000000000000033c <mkdir>:
.global mkdir
mkdir:
 li a7, SYS_mkdir
 33c:	48d1                	li	a7,20
 ecall
 33e:	00000073          	ecall
 ret
 342:	8082                	ret

0000000000000344 <chdir>:
.global chdir
chdir:
 li a7, SYS_chdir
 344:	48a5                	li	a7,9
 ecall
 346:	00000073          	ecall
 ret
 34a:	8082                	ret

000000000000034c <dup>:
.global dup
dup:
 li a7, SYS_dup
 34c:	48a9                	li	a7,10
 ecall
 34e:	00000073          	ecall
 ret
 352:	8082                	ret

0000000000000354 <getpid>:
.global getpid
getpid:
 li a7, SYS_getpid
 354:	48ad                	li	a7,11
 ecall
 356:	00000073          	ecall
 ret
 35a:	8082                	ret

000000000000035c <sbrk>:
.global sbrk
sbrk:
 li a7, SYS_sbrk
 35c:	48b1                	li	a7,12
 ecall
 35e:	00000073          	ecall
 ret
 362:	8082                	ret

0000000000000364 <sleep>:
.global sleep
sleep:
 li a7, SYS_sleep
 364:	48b5                	li	a7,13
 ecall
 366:	00000073          	ecall
 ret
 36a:	8082                	ret

000000000000036c <uptime>:
.global uptime
uptime:
 li a7, SYS_uptime
 36c:	48b9                	li	a7,14
 ecall
 36e:	00000073          	ecall
 ret
 372:	8082                	ret

0000000000000374 <sigprocmask>:
.global sigprocmask
sigprocmask:
 li a7, SYS_sigprocmask
 374:	48d9                	li	a7,22
 ecall
 376:	00000073          	ecall
 ret
 37a:	8082                	ret

000000000000037c <sigaction>:
.global sigaction
sigaction:
 li a7, SYS_sigaction
 37c:	48dd                	li	a7,23
 ecall
 37e:	00000073          	ecall
 ret
 382:	8082                	ret

0000000000000384 <sigret>:
.global sigret
sigret:
 li a7, SYS_sigret
 384:	48e1                	li	a7,24
 ecall
 386:	00000073          	ecall
 ret
 38a:	8082                	ret

000000000000038c <kthread_create>:
.global kthread_create
kthread_create:
 li a7, SYS_kthread_create
 38c:	48e5                	li	a7,25
 ecall
 38e:	00000073          	ecall
 ret
 392:	8082                	ret

0000000000000394 <kthread_id>:
.global kthread_id
kthread_id:
 li a7, SYS_kthread_id
 394:	48e9                	li	a7,26
 ecall
 396:	00000073          	ecall
 ret
 39a:	8082                	ret

000000000000039c <kthread_exit>:
.global kthread_exit
kthread_exit:
 li a7, SYS_kthread_exit
 39c:	48ed                	li	a7,27
 ecall
 39e:	00000073          	ecall
 ret
 3a2:	8082                	ret

00000000000003a4 <kthread_join>:
.global kthread_join
kthread_join:
 li a7, SYS_kthread_join
 3a4:	48f1                	li	a7,28
 ecall
 3a6:	00000073          	ecall
 ret
 3aa:	8082                	ret

00000000000003ac <bsem_alloc>:
.global bsem_alloc
bsem_alloc:
 li a7, SYS_bsem_alloc
 3ac:	48f5                	li	a7,29
 ecall
 3ae:	00000073          	ecall
 ret
 3b2:	8082                	ret

00000000000003b4 <bsem_free>:
.global bsem_free
bsem_free:
 li a7, SYS_bsem_free
 3b4:	48f9                	li	a7,30
 ecall
 3b6:	00000073          	ecall
 ret
 3ba:	8082                	ret

00000000000003bc <bsem_down>:
.global bsem_down
bsem_down:
 li a7, SYS_bsem_down
 3bc:	48fd                	li	a7,31
 ecall
 3be:	00000073          	ecall
 ret
 3c2:	8082                	ret

00000000000003c4 <bsem_up>:
.global bsem_up
bsem_up:
 li a7, SYS_bsem_up
 3c4:	02000893          	li	a7,32
 ecall
 3c8:	00000073          	ecall
 ret
 3cc:	8082                	ret

00000000000003ce <putc>:

static char digits[] = "0123456789ABCDEF";

static void
putc(int fd, char c)
{
 3ce:	1101                	addi	sp,sp,-32
 3d0:	ec06                	sd	ra,24(sp)
 3d2:	e822                	sd	s0,16(sp)
 3d4:	1000                	addi	s0,sp,32
 3d6:	feb407a3          	sb	a1,-17(s0)
  write(fd, &c, 1);
 3da:	4605                	li	a2,1
 3dc:	fef40593          	addi	a1,s0,-17
 3e0:	00000097          	auipc	ra,0x0
 3e4:	f14080e7          	jalr	-236(ra) # 2f4 <write>
}
 3e8:	60e2                	ld	ra,24(sp)
 3ea:	6442                	ld	s0,16(sp)
 3ec:	6105                	addi	sp,sp,32
 3ee:	8082                	ret

00000000000003f0 <printint>:

static void
printint(int fd, int xx, int base, int sgn)
{
 3f0:	7139                	addi	sp,sp,-64
 3f2:	fc06                	sd	ra,56(sp)
 3f4:	f822                	sd	s0,48(sp)
 3f6:	f426                	sd	s1,40(sp)
 3f8:	f04a                	sd	s2,32(sp)
 3fa:	ec4e                	sd	s3,24(sp)
 3fc:	0080                	addi	s0,sp,64
 3fe:	84aa                	mv	s1,a0
  char buf[16];
  int i, neg;
  uint x;

  neg = 0;
  if(sgn && xx < 0){
 400:	c299                	beqz	a3,406 <printint+0x16>
 402:	0805c863          	bltz	a1,492 <printint+0xa2>
    neg = 1;
    x = -xx;
  } else {
    x = xx;
 406:	2581                	sext.w	a1,a1
  neg = 0;
 408:	4881                	li	a7,0
 40a:	fc040693          	addi	a3,s0,-64
  }

  i = 0;
 40e:	4701                	li	a4,0
  do{
    buf[i++] = digits[x % base];
 410:	2601                	sext.w	a2,a2
 412:	00000517          	auipc	a0,0x0
 416:	5be50513          	addi	a0,a0,1470 # 9d0 <digits>
 41a:	883a                	mv	a6,a4
 41c:	2705                	addiw	a4,a4,1
 41e:	02c5f7bb          	remuw	a5,a1,a2
 422:	1782                	slli	a5,a5,0x20
 424:	9381                	srli	a5,a5,0x20
 426:	97aa                	add	a5,a5,a0
 428:	0007c783          	lbu	a5,0(a5)
 42c:	00f68023          	sb	a5,0(a3)
  }while((x /= base) != 0);
 430:	0005879b          	sext.w	a5,a1
 434:	02c5d5bb          	divuw	a1,a1,a2
 438:	0685                	addi	a3,a3,1
 43a:	fec7f0e3          	bgeu	a5,a2,41a <printint+0x2a>
  if(neg)
 43e:	00088b63          	beqz	a7,454 <printint+0x64>
    buf[i++] = '-';
 442:	fd040793          	addi	a5,s0,-48
 446:	973e                	add	a4,a4,a5
 448:	02d00793          	li	a5,45
 44c:	fef70823          	sb	a5,-16(a4)
 450:	0028071b          	addiw	a4,a6,2

  while(--i >= 0)
 454:	02e05863          	blez	a4,484 <printint+0x94>
 458:	fc040793          	addi	a5,s0,-64
 45c:	00e78933          	add	s2,a5,a4
 460:	fff78993          	addi	s3,a5,-1
 464:	99ba                	add	s3,s3,a4
 466:	377d                	addiw	a4,a4,-1
 468:	1702                	slli	a4,a4,0x20
 46a:	9301                	srli	a4,a4,0x20
 46c:	40e989b3          	sub	s3,s3,a4
    putc(fd, buf[i]);
 470:	fff94583          	lbu	a1,-1(s2)
 474:	8526                	mv	a0,s1
 476:	00000097          	auipc	ra,0x0
 47a:	f58080e7          	jalr	-168(ra) # 3ce <putc>
  while(--i >= 0)
 47e:	197d                	addi	s2,s2,-1
 480:	ff3918e3          	bne	s2,s3,470 <printint+0x80>
}
 484:	70e2                	ld	ra,56(sp)
 486:	7442                	ld	s0,48(sp)
 488:	74a2                	ld	s1,40(sp)
 48a:	7902                	ld	s2,32(sp)
 48c:	69e2                	ld	s3,24(sp)
 48e:	6121                	addi	sp,sp,64
 490:	8082                	ret
    x = -xx;
 492:	40b005bb          	negw	a1,a1
    neg = 1;
 496:	4885                	li	a7,1
    x = -xx;
 498:	bf8d                	j	40a <printint+0x1a>

000000000000049a <vprintf>:
}

// Print to the given fd. Only understands %d, %x, %p, %s.
void
vprintf(int fd, const char *fmt, va_list ap)
{
 49a:	7119                	addi	sp,sp,-128
 49c:	fc86                	sd	ra,120(sp)
 49e:	f8a2                	sd	s0,112(sp)
 4a0:	f4a6                	sd	s1,104(sp)
 4a2:	f0ca                	sd	s2,96(sp)
 4a4:	ecce                	sd	s3,88(sp)
 4a6:	e8d2                	sd	s4,80(sp)
 4a8:	e4d6                	sd	s5,72(sp)
 4aa:	e0da                	sd	s6,64(sp)
 4ac:	fc5e                	sd	s7,56(sp)
 4ae:	f862                	sd	s8,48(sp)
 4b0:	f466                	sd	s9,40(sp)
 4b2:	f06a                	sd	s10,32(sp)
 4b4:	ec6e                	sd	s11,24(sp)
 4b6:	0100                	addi	s0,sp,128
  char *s;
  int c, i, state;

  state = 0;
  for(i = 0; fmt[i]; i++){
 4b8:	0005c903          	lbu	s2,0(a1)
 4bc:	18090f63          	beqz	s2,65a <vprintf+0x1c0>
 4c0:	8aaa                	mv	s5,a0
 4c2:	8b32                	mv	s6,a2
 4c4:	00158493          	addi	s1,a1,1
  state = 0;
 4c8:	4981                	li	s3,0
      if(c == '%'){
        state = '%';
      } else {
        putc(fd, c);
      }
    } else if(state == '%'){
 4ca:	02500a13          	li	s4,37
      if(c == 'd'){
 4ce:	06400c13          	li	s8,100
        printint(fd, va_arg(ap, int), 10, 1);
      } else if(c == 'l') {
 4d2:	06c00c93          	li	s9,108
        printint(fd, va_arg(ap, uint64), 10, 0);
      } else if(c == 'x') {
 4d6:	07800d13          	li	s10,120
        printint(fd, va_arg(ap, int), 16, 0);
      } else if(c == 'p') {
 4da:	07000d93          	li	s11,112
    putc(fd, digits[x >> (sizeof(uint64) * 8 - 4)]);
 4de:	00000b97          	auipc	s7,0x0
 4e2:	4f2b8b93          	addi	s7,s7,1266 # 9d0 <digits>
 4e6:	a839                	j	504 <vprintf+0x6a>
        putc(fd, c);
 4e8:	85ca                	mv	a1,s2
 4ea:	8556                	mv	a0,s5
 4ec:	00000097          	auipc	ra,0x0
 4f0:	ee2080e7          	jalr	-286(ra) # 3ce <putc>
 4f4:	a019                	j	4fa <vprintf+0x60>
    } else if(state == '%'){
 4f6:	01498f63          	beq	s3,s4,514 <vprintf+0x7a>
  for(i = 0; fmt[i]; i++){
 4fa:	0485                	addi	s1,s1,1
 4fc:	fff4c903          	lbu	s2,-1(s1)
 500:	14090d63          	beqz	s2,65a <vprintf+0x1c0>
    c = fmt[i] & 0xff;
 504:	0009079b          	sext.w	a5,s2
    if(state == 0){
 508:	fe0997e3          	bnez	s3,4f6 <vprintf+0x5c>
      if(c == '%'){
 50c:	fd479ee3          	bne	a5,s4,4e8 <vprintf+0x4e>
        state = '%';
 510:	89be                	mv	s3,a5
 512:	b7e5                	j	4fa <vprintf+0x60>
      if(c == 'd'){
 514:	05878063          	beq	a5,s8,554 <vprintf+0xba>
      } else if(c == 'l') {
 518:	05978c63          	beq	a5,s9,570 <vprintf+0xd6>
      } else if(c == 'x') {
 51c:	07a78863          	beq	a5,s10,58c <vprintf+0xf2>
      } else if(c == 'p') {
 520:	09b78463          	beq	a5,s11,5a8 <vprintf+0x10e>
        printptr(fd, va_arg(ap, uint64));
      } else if(c == 's'){
 524:	07300713          	li	a4,115
 528:	0ce78663          	beq	a5,a4,5f4 <vprintf+0x15a>
          s = "(null)";
        while(*s != 0){
          putc(fd, *s);
          s++;
        }
      } else if(c == 'c'){
 52c:	06300713          	li	a4,99
 530:	0ee78e63          	beq	a5,a4,62c <vprintf+0x192>
        putc(fd, va_arg(ap, uint));
      } else if(c == '%'){
 534:	11478863          	beq	a5,s4,644 <vprintf+0x1aa>
        putc(fd, c);
      } else {
        // Unknown % sequence.  Print it to draw attention.
        putc(fd, '%');
 538:	85d2                	mv	a1,s4
 53a:	8556                	mv	a0,s5
 53c:	00000097          	auipc	ra,0x0
 540:	e92080e7          	jalr	-366(ra) # 3ce <putc>
        putc(fd, c);
 544:	85ca                	mv	a1,s2
 546:	8556                	mv	a0,s5
 548:	00000097          	auipc	ra,0x0
 54c:	e86080e7          	jalr	-378(ra) # 3ce <putc>
      }
      state = 0;
 550:	4981                	li	s3,0
 552:	b765                	j	4fa <vprintf+0x60>
        printint(fd, va_arg(ap, int), 10, 1);
 554:	008b0913          	addi	s2,s6,8
 558:	4685                	li	a3,1
 55a:	4629                	li	a2,10
 55c:	000b2583          	lw	a1,0(s6)
 560:	8556                	mv	a0,s5
 562:	00000097          	auipc	ra,0x0
 566:	e8e080e7          	jalr	-370(ra) # 3f0 <printint>
 56a:	8b4a                	mv	s6,s2
      state = 0;
 56c:	4981                	li	s3,0
 56e:	b771                	j	4fa <vprintf+0x60>
        printint(fd, va_arg(ap, uint64), 10, 0);
 570:	008b0913          	addi	s2,s6,8
 574:	4681                	li	a3,0
 576:	4629                	li	a2,10
 578:	000b2583          	lw	a1,0(s6)
 57c:	8556                	mv	a0,s5
 57e:	00000097          	auipc	ra,0x0
 582:	e72080e7          	jalr	-398(ra) # 3f0 <printint>
 586:	8b4a                	mv	s6,s2
      state = 0;
 588:	4981                	li	s3,0
 58a:	bf85                	j	4fa <vprintf+0x60>
        printint(fd, va_arg(ap, int), 16, 0);
 58c:	008b0913          	addi	s2,s6,8
 590:	4681                	li	a3,0
 592:	4641                	li	a2,16
 594:	000b2583          	lw	a1,0(s6)
 598:	8556                	mv	a0,s5
 59a:	00000097          	auipc	ra,0x0
 59e:	e56080e7          	jalr	-426(ra) # 3f0 <printint>
 5a2:	8b4a                	mv	s6,s2
      state = 0;
 5a4:	4981                	li	s3,0
 5a6:	bf91                	j	4fa <vprintf+0x60>
        printptr(fd, va_arg(ap, uint64));
 5a8:	008b0793          	addi	a5,s6,8
 5ac:	f8f43423          	sd	a5,-120(s0)
 5b0:	000b3983          	ld	s3,0(s6)
  putc(fd, '0');
 5b4:	03000593          	li	a1,48
 5b8:	8556                	mv	a0,s5
 5ba:	00000097          	auipc	ra,0x0
 5be:	e14080e7          	jalr	-492(ra) # 3ce <putc>
  putc(fd, 'x');
 5c2:	85ea                	mv	a1,s10
 5c4:	8556                	mv	a0,s5
 5c6:	00000097          	auipc	ra,0x0
 5ca:	e08080e7          	jalr	-504(ra) # 3ce <putc>
 5ce:	4941                	li	s2,16
    putc(fd, digits[x >> (sizeof(uint64) * 8 - 4)]);
 5d0:	03c9d793          	srli	a5,s3,0x3c
 5d4:	97de                	add	a5,a5,s7
 5d6:	0007c583          	lbu	a1,0(a5)
 5da:	8556                	mv	a0,s5
 5dc:	00000097          	auipc	ra,0x0
 5e0:	df2080e7          	jalr	-526(ra) # 3ce <putc>
  for (i = 0; i < (sizeof(uint64) * 2); i++, x <<= 4)
 5e4:	0992                	slli	s3,s3,0x4
 5e6:	397d                	addiw	s2,s2,-1
 5e8:	fe0914e3          	bnez	s2,5d0 <vprintf+0x136>
        printptr(fd, va_arg(ap, uint64));
 5ec:	f8843b03          	ld	s6,-120(s0)
      state = 0;
 5f0:	4981                	li	s3,0
 5f2:	b721                	j	4fa <vprintf+0x60>
        s = va_arg(ap, char*);
 5f4:	008b0993          	addi	s3,s6,8
 5f8:	000b3903          	ld	s2,0(s6)
        if(s == 0)
 5fc:	02090163          	beqz	s2,61e <vprintf+0x184>
        while(*s != 0){
 600:	00094583          	lbu	a1,0(s2)
 604:	c9a1                	beqz	a1,654 <vprintf+0x1ba>
          putc(fd, *s);
 606:	8556                	mv	a0,s5
 608:	00000097          	auipc	ra,0x0
 60c:	dc6080e7          	jalr	-570(ra) # 3ce <putc>
          s++;
 610:	0905                	addi	s2,s2,1
        while(*s != 0){
 612:	00094583          	lbu	a1,0(s2)
 616:	f9e5                	bnez	a1,606 <vprintf+0x16c>
        s = va_arg(ap, char*);
 618:	8b4e                	mv	s6,s3
      state = 0;
 61a:	4981                	li	s3,0
 61c:	bdf9                	j	4fa <vprintf+0x60>
          s = "(null)";
 61e:	00000917          	auipc	s2,0x0
 622:	3aa90913          	addi	s2,s2,938 # 9c8 <csem_free+0x56>
        while(*s != 0){
 626:	02800593          	li	a1,40
 62a:	bff1                	j	606 <vprintf+0x16c>
        putc(fd, va_arg(ap, uint));
 62c:	008b0913          	addi	s2,s6,8
 630:	000b4583          	lbu	a1,0(s6)
 634:	8556                	mv	a0,s5
 636:	00000097          	auipc	ra,0x0
 63a:	d98080e7          	jalr	-616(ra) # 3ce <putc>
 63e:	8b4a                	mv	s6,s2
      state = 0;
 640:	4981                	li	s3,0
 642:	bd65                	j	4fa <vprintf+0x60>
        putc(fd, c);
 644:	85d2                	mv	a1,s4
 646:	8556                	mv	a0,s5
 648:	00000097          	auipc	ra,0x0
 64c:	d86080e7          	jalr	-634(ra) # 3ce <putc>
      state = 0;
 650:	4981                	li	s3,0
 652:	b565                	j	4fa <vprintf+0x60>
        s = va_arg(ap, char*);
 654:	8b4e                	mv	s6,s3
      state = 0;
 656:	4981                	li	s3,0
 658:	b54d                	j	4fa <vprintf+0x60>
    }
  }
}
 65a:	70e6                	ld	ra,120(sp)
 65c:	7446                	ld	s0,112(sp)
 65e:	74a6                	ld	s1,104(sp)
 660:	7906                	ld	s2,96(sp)
 662:	69e6                	ld	s3,88(sp)
 664:	6a46                	ld	s4,80(sp)
 666:	6aa6                	ld	s5,72(sp)
 668:	6b06                	ld	s6,64(sp)
 66a:	7be2                	ld	s7,56(sp)
 66c:	7c42                	ld	s8,48(sp)
 66e:	7ca2                	ld	s9,40(sp)
 670:	7d02                	ld	s10,32(sp)
 672:	6de2                	ld	s11,24(sp)
 674:	6109                	addi	sp,sp,128
 676:	8082                	ret

0000000000000678 <fprintf>:

void
fprintf(int fd, const char *fmt, ...)
{
 678:	715d                	addi	sp,sp,-80
 67a:	ec06                	sd	ra,24(sp)
 67c:	e822                	sd	s0,16(sp)
 67e:	1000                	addi	s0,sp,32
 680:	e010                	sd	a2,0(s0)
 682:	e414                	sd	a3,8(s0)
 684:	e818                	sd	a4,16(s0)
 686:	ec1c                	sd	a5,24(s0)
 688:	03043023          	sd	a6,32(s0)
 68c:	03143423          	sd	a7,40(s0)
  va_list ap;

  va_start(ap, fmt);
 690:	fe843423          	sd	s0,-24(s0)
  vprintf(fd, fmt, ap);
 694:	8622                	mv	a2,s0
 696:	00000097          	auipc	ra,0x0
 69a:	e04080e7          	jalr	-508(ra) # 49a <vprintf>
}
 69e:	60e2                	ld	ra,24(sp)
 6a0:	6442                	ld	s0,16(sp)
 6a2:	6161                	addi	sp,sp,80
 6a4:	8082                	ret

00000000000006a6 <printf>:

void
printf(const char *fmt, ...)
{
 6a6:	711d                	addi	sp,sp,-96
 6a8:	ec06                	sd	ra,24(sp)
 6aa:	e822                	sd	s0,16(sp)
 6ac:	1000                	addi	s0,sp,32
 6ae:	e40c                	sd	a1,8(s0)
 6b0:	e810                	sd	a2,16(s0)
 6b2:	ec14                	sd	a3,24(s0)
 6b4:	f018                	sd	a4,32(s0)
 6b6:	f41c                	sd	a5,40(s0)
 6b8:	03043823          	sd	a6,48(s0)
 6bc:	03143c23          	sd	a7,56(s0)
  va_list ap;

  va_start(ap, fmt);
 6c0:	00840613          	addi	a2,s0,8
 6c4:	fec43423          	sd	a2,-24(s0)
  vprintf(1, fmt, ap);
 6c8:	85aa                	mv	a1,a0
 6ca:	4505                	li	a0,1
 6cc:	00000097          	auipc	ra,0x0
 6d0:	dce080e7          	jalr	-562(ra) # 49a <vprintf>
}
 6d4:	60e2                	ld	ra,24(sp)
 6d6:	6442                	ld	s0,16(sp)
 6d8:	6125                	addi	sp,sp,96
 6da:	8082                	ret

00000000000006dc <free>:
static Header base;
static Header *freep;

void
free(void *ap)
{
 6dc:	1141                	addi	sp,sp,-16
 6de:	e422                	sd	s0,8(sp)
 6e0:	0800                	addi	s0,sp,16
  Header *bp, *p;

  bp = (Header*)ap - 1;
 6e2:	ff050693          	addi	a3,a0,-16
  for(p = freep; !(bp > p && bp < p->s.ptr); p = p->s.ptr)
 6e6:	00000797          	auipc	a5,0x0
 6ea:	3727b783          	ld	a5,882(a5) # a58 <freep>
 6ee:	a805                	j	71e <free+0x42>
    if(p >= p->s.ptr && (bp > p || bp < p->s.ptr))
      break;
  if(bp + bp->s.size == p->s.ptr){
    bp->s.size += p->s.ptr->s.size;
 6f0:	4618                	lw	a4,8(a2)
 6f2:	9db9                	addw	a1,a1,a4
 6f4:	feb52c23          	sw	a1,-8(a0)
    bp->s.ptr = p->s.ptr->s.ptr;
 6f8:	6398                	ld	a4,0(a5)
 6fa:	6318                	ld	a4,0(a4)
 6fc:	fee53823          	sd	a4,-16(a0)
 700:	a091                	j	744 <free+0x68>
  } else
    bp->s.ptr = p->s.ptr;
  if(p + p->s.size == bp){
    p->s.size += bp->s.size;
 702:	ff852703          	lw	a4,-8(a0)
 706:	9e39                	addw	a2,a2,a4
 708:	c790                	sw	a2,8(a5)
    p->s.ptr = bp->s.ptr;
 70a:	ff053703          	ld	a4,-16(a0)
 70e:	e398                	sd	a4,0(a5)
 710:	a099                	j	756 <free+0x7a>
    if(p >= p->s.ptr && (bp > p || bp < p->s.ptr))
 712:	6398                	ld	a4,0(a5)
 714:	00e7e463          	bltu	a5,a4,71c <free+0x40>
 718:	00e6ea63          	bltu	a3,a4,72c <free+0x50>
{
 71c:	87ba                	mv	a5,a4
  for(p = freep; !(bp > p && bp < p->s.ptr); p = p->s.ptr)
 71e:	fed7fae3          	bgeu	a5,a3,712 <free+0x36>
 722:	6398                	ld	a4,0(a5)
 724:	00e6e463          	bltu	a3,a4,72c <free+0x50>
    if(p >= p->s.ptr && (bp > p || bp < p->s.ptr))
 728:	fee7eae3          	bltu	a5,a4,71c <free+0x40>
  if(bp + bp->s.size == p->s.ptr){
 72c:	ff852583          	lw	a1,-8(a0)
 730:	6390                	ld	a2,0(a5)
 732:	02059813          	slli	a6,a1,0x20
 736:	01c85713          	srli	a4,a6,0x1c
 73a:	9736                	add	a4,a4,a3
 73c:	fae60ae3          	beq	a2,a4,6f0 <free+0x14>
    bp->s.ptr = p->s.ptr;
 740:	fec53823          	sd	a2,-16(a0)
  if(p + p->s.size == bp){
 744:	4790                	lw	a2,8(a5)
 746:	02061593          	slli	a1,a2,0x20
 74a:	01c5d713          	srli	a4,a1,0x1c
 74e:	973e                	add	a4,a4,a5
 750:	fae689e3          	beq	a3,a4,702 <free+0x26>
  } else
    p->s.ptr = bp;
 754:	e394                	sd	a3,0(a5)
  freep = p;
 756:	00000717          	auipc	a4,0x0
 75a:	30f73123          	sd	a5,770(a4) # a58 <freep>
}
 75e:	6422                	ld	s0,8(sp)
 760:	0141                	addi	sp,sp,16
 762:	8082                	ret

0000000000000764 <malloc>:
  return freep;
}

void*
malloc(uint nbytes)
{
 764:	7139                	addi	sp,sp,-64
 766:	fc06                	sd	ra,56(sp)
 768:	f822                	sd	s0,48(sp)
 76a:	f426                	sd	s1,40(sp)
 76c:	f04a                	sd	s2,32(sp)
 76e:	ec4e                	sd	s3,24(sp)
 770:	e852                	sd	s4,16(sp)
 772:	e456                	sd	s5,8(sp)
 774:	e05a                	sd	s6,0(sp)
 776:	0080                	addi	s0,sp,64
  Header *p, *prevp;
  uint nunits;

  nunits = (nbytes + sizeof(Header) - 1)/sizeof(Header) + 1;
 778:	02051493          	slli	s1,a0,0x20
 77c:	9081                	srli	s1,s1,0x20
 77e:	04bd                	addi	s1,s1,15
 780:	8091                	srli	s1,s1,0x4
 782:	0014899b          	addiw	s3,s1,1
 786:	0485                	addi	s1,s1,1
  if((prevp = freep) == 0){
 788:	00000517          	auipc	a0,0x0
 78c:	2d053503          	ld	a0,720(a0) # a58 <freep>
 790:	c515                	beqz	a0,7bc <malloc+0x58>
    base.s.ptr = freep = prevp = &base;
    base.s.size = 0;
  }
  for(p = prevp->s.ptr; ; prevp = p, p = p->s.ptr){
 792:	611c                	ld	a5,0(a0)
    if(p->s.size >= nunits){
 794:	4798                	lw	a4,8(a5)
 796:	02977f63          	bgeu	a4,s1,7d4 <malloc+0x70>
 79a:	8a4e                	mv	s4,s3
 79c:	0009871b          	sext.w	a4,s3
 7a0:	6685                	lui	a3,0x1
 7a2:	00d77363          	bgeu	a4,a3,7a8 <malloc+0x44>
 7a6:	6a05                	lui	s4,0x1
 7a8:	000a0b1b          	sext.w	s6,s4
  p = sbrk(nu * sizeof(Header));
 7ac:	004a1a1b          	slliw	s4,s4,0x4
        p->s.size = nunits;
      }
      freep = prevp;
      return (void*)(p + 1);
    }
    if(p == freep)
 7b0:	00000917          	auipc	s2,0x0
 7b4:	2a890913          	addi	s2,s2,680 # a58 <freep>
  if(p == (char*)-1)
 7b8:	5afd                	li	s5,-1
 7ba:	a895                	j	82e <malloc+0xca>
    base.s.ptr = freep = prevp = &base;
 7bc:	00000797          	auipc	a5,0x0
 7c0:	2a478793          	addi	a5,a5,676 # a60 <base>
 7c4:	00000717          	auipc	a4,0x0
 7c8:	28f73a23          	sd	a5,660(a4) # a58 <freep>
 7cc:	e39c                	sd	a5,0(a5)
    base.s.size = 0;
 7ce:	0007a423          	sw	zero,8(a5)
    if(p->s.size >= nunits){
 7d2:	b7e1                	j	79a <malloc+0x36>
      if(p->s.size == nunits)
 7d4:	02e48c63          	beq	s1,a4,80c <malloc+0xa8>
        p->s.size -= nunits;
 7d8:	4137073b          	subw	a4,a4,s3
 7dc:	c798                	sw	a4,8(a5)
        p += p->s.size;
 7de:	02071693          	slli	a3,a4,0x20
 7e2:	01c6d713          	srli	a4,a3,0x1c
 7e6:	97ba                	add	a5,a5,a4
        p->s.size = nunits;
 7e8:	0137a423          	sw	s3,8(a5)
      freep = prevp;
 7ec:	00000717          	auipc	a4,0x0
 7f0:	26a73623          	sd	a0,620(a4) # a58 <freep>
      return (void*)(p + 1);
 7f4:	01078513          	addi	a0,a5,16
      if((p = morecore(nunits)) == 0)
        return 0;
  }
}
 7f8:	70e2                	ld	ra,56(sp)
 7fa:	7442                	ld	s0,48(sp)
 7fc:	74a2                	ld	s1,40(sp)
 7fe:	7902                	ld	s2,32(sp)
 800:	69e2                	ld	s3,24(sp)
 802:	6a42                	ld	s4,16(sp)
 804:	6aa2                	ld	s5,8(sp)
 806:	6b02                	ld	s6,0(sp)
 808:	6121                	addi	sp,sp,64
 80a:	8082                	ret
        prevp->s.ptr = p->s.ptr;
 80c:	6398                	ld	a4,0(a5)
 80e:	e118                	sd	a4,0(a0)
 810:	bff1                	j	7ec <malloc+0x88>
  hp->s.size = nu;
 812:	01652423          	sw	s6,8(a0)
  free((void*)(hp + 1));
 816:	0541                	addi	a0,a0,16
 818:	00000097          	auipc	ra,0x0
 81c:	ec4080e7          	jalr	-316(ra) # 6dc <free>
  return freep;
 820:	00093503          	ld	a0,0(s2)
      if((p = morecore(nunits)) == 0)
 824:	d971                	beqz	a0,7f8 <malloc+0x94>
  for(p = prevp->s.ptr; ; prevp = p, p = p->s.ptr){
 826:	611c                	ld	a5,0(a0)
    if(p->s.size >= nunits){
 828:	4798                	lw	a4,8(a5)
 82a:	fa9775e3          	bgeu	a4,s1,7d4 <malloc+0x70>
    if(p == freep)
 82e:	00093703          	ld	a4,0(s2)
 832:	853e                	mv	a0,a5
 834:	fef719e3          	bne	a4,a5,826 <malloc+0xc2>
  p = sbrk(nu * sizeof(Header));
 838:	8552                	mv	a0,s4
 83a:	00000097          	auipc	ra,0x0
 83e:	b22080e7          	jalr	-1246(ra) # 35c <sbrk>
  if(p == (char*)-1)
 842:	fd5518e3          	bne	a0,s5,812 <malloc+0xae>
        return 0;
 846:	4501                	li	a0,0
 848:	bf45                	j	7f8 <malloc+0x94>

000000000000084a <csem_down>:
#include "Csemaphore.h"

struct counting_semaphore;

void 
csem_down(struct counting_semaphore *sem){
 84a:	1101                	addi	sp,sp,-32
 84c:	ec06                	sd	ra,24(sp)
 84e:	e822                	sd	s0,16(sp)
 850:	e426                	sd	s1,8(sp)
 852:	1000                	addi	s0,sp,32
    if(!sem){
 854:	cd29                	beqz	a0,8ae <csem_down+0x64>
 856:	84aa                	mv	s1,a0
        printf("invalid sem pointer in csem_down\n");
        return;
    }
    
    bsem_down(sem->S1_desc);   //TODO: make sure works
 858:	4108                	lw	a0,0(a0)
 85a:	00000097          	auipc	ra,0x0
 85e:	b62080e7          	jalr	-1182(ra) # 3bc <bsem_down>
    sem->waiting++;
 862:	44dc                	lw	a5,12(s1)
 864:	2785                	addiw	a5,a5,1
 866:	c4dc                	sw	a5,12(s1)
    bsem_up(sem->S1_desc);
 868:	4088                	lw	a0,0(s1)
 86a:	00000097          	auipc	ra,0x0
 86e:	b5a080e7          	jalr	-1190(ra) # 3c4 <bsem_up>

    bsem_down(sem->S2_desc);
 872:	40c8                	lw	a0,4(s1)
 874:	00000097          	auipc	ra,0x0
 878:	b48080e7          	jalr	-1208(ra) # 3bc <bsem_down>
    bsem_down(sem->S1_desc);
 87c:	4088                	lw	a0,0(s1)
 87e:	00000097          	auipc	ra,0x0
 882:	b3e080e7          	jalr	-1218(ra) # 3bc <bsem_down>
    sem->waiting--;
 886:	44dc                	lw	a5,12(s1)
 888:	37fd                	addiw	a5,a5,-1
 88a:	c4dc                	sw	a5,12(s1)
    sem->value--;
 88c:	449c                	lw	a5,8(s1)
 88e:	37fd                	addiw	a5,a5,-1
 890:	0007871b          	sext.w	a4,a5
 894:	c49c                	sw	a5,8(s1)
    if(sem->value > 0)
 896:	02e04563          	bgtz	a4,8c0 <csem_down+0x76>
        bsem_up(sem->S2_desc);
    bsem_up(sem->S1_desc);
 89a:	4088                	lw	a0,0(s1)
 89c:	00000097          	auipc	ra,0x0
 8a0:	b28080e7          	jalr	-1240(ra) # 3c4 <bsem_up>

}
 8a4:	60e2                	ld	ra,24(sp)
 8a6:	6442                	ld	s0,16(sp)
 8a8:	64a2                	ld	s1,8(sp)
 8aa:	6105                	addi	sp,sp,32
 8ac:	8082                	ret
        printf("invalid sem pointer in csem_down\n");
 8ae:	00000517          	auipc	a0,0x0
 8b2:	13a50513          	addi	a0,a0,314 # 9e8 <digits+0x18>
 8b6:	00000097          	auipc	ra,0x0
 8ba:	df0080e7          	jalr	-528(ra) # 6a6 <printf>
        return;
 8be:	b7dd                	j	8a4 <csem_down+0x5a>
        bsem_up(sem->S2_desc);
 8c0:	40c8                	lw	a0,4(s1)
 8c2:	00000097          	auipc	ra,0x0
 8c6:	b02080e7          	jalr	-1278(ra) # 3c4 <bsem_up>
 8ca:	bfc1                	j	89a <csem_down+0x50>

00000000000008cc <csem_up>:

void            
csem_up(struct counting_semaphore *sem){
 8cc:	1101                	addi	sp,sp,-32
 8ce:	ec06                	sd	ra,24(sp)
 8d0:	e822                	sd	s0,16(sp)
 8d2:	e426                	sd	s1,8(sp)
 8d4:	1000                	addi	s0,sp,32
    if(!sem){
 8d6:	c90d                	beqz	a0,908 <csem_up+0x3c>
 8d8:	84aa                	mv	s1,a0
        printf("invalid sem pointer in csem_up\n");
        return;
    }

    bsem_down(sem->S1_desc);
 8da:	4108                	lw	a0,0(a0)
 8dc:	00000097          	auipc	ra,0x0
 8e0:	ae0080e7          	jalr	-1312(ra) # 3bc <bsem_down>
    sem->value++;
 8e4:	449c                	lw	a5,8(s1)
 8e6:	2785                	addiw	a5,a5,1
 8e8:	0007871b          	sext.w	a4,a5
 8ec:	c49c                	sw	a5,8(s1)
    if(sem->value == 1)
 8ee:	4785                	li	a5,1
 8f0:	02f70563          	beq	a4,a5,91a <csem_up+0x4e>
        bsem_up(sem->S2_desc);
    bsem_up(sem->S1_desc);
 8f4:	4088                	lw	a0,0(s1)
 8f6:	00000097          	auipc	ra,0x0
 8fa:	ace080e7          	jalr	-1330(ra) # 3c4 <bsem_up>
}
 8fe:	60e2                	ld	ra,24(sp)
 900:	6442                	ld	s0,16(sp)
 902:	64a2                	ld	s1,8(sp)
 904:	6105                	addi	sp,sp,32
 906:	8082                	ret
        printf("invalid sem pointer in csem_up\n");
 908:	00000517          	auipc	a0,0x0
 90c:	10850513          	addi	a0,a0,264 # a10 <digits+0x40>
 910:	00000097          	auipc	ra,0x0
 914:	d96080e7          	jalr	-618(ra) # 6a6 <printf>
        return;
 918:	b7dd                	j	8fe <csem_up+0x32>
        bsem_up(sem->S2_desc);
 91a:	40c8                	lw	a0,4(s1)
 91c:	00000097          	auipc	ra,0x0
 920:	aa8080e7          	jalr	-1368(ra) # 3c4 <bsem_up>
 924:	bfc1                	j	8f4 <csem_up+0x28>

0000000000000926 <csem_alloc>:


int             
csem_alloc(struct counting_semaphore *sem, int initial_value){
 926:	1101                	addi	sp,sp,-32
 928:	ec06                	sd	ra,24(sp)
 92a:	e822                	sd	s0,16(sp)
 92c:	e426                	sd	s1,8(sp)
 92e:	e04a                	sd	s2,0(sp)
 930:	1000                	addi	s0,sp,32
 932:	84aa                	mv	s1,a0
 934:	892e                	mv	s2,a1
    sem->S1_desc = bsem_alloc();
 936:	00000097          	auipc	ra,0x0
 93a:	a76080e7          	jalr	-1418(ra) # 3ac <bsem_alloc>
 93e:	c088                	sw	a0,0(s1)
    sem->S2_desc = bsem_alloc();
 940:	00000097          	auipc	ra,0x0
 944:	a6c080e7          	jalr	-1428(ra) # 3ac <bsem_alloc>
 948:	c0c8                	sw	a0,4(s1)
    if(sem->S1_desc <0 || sem->S2_desc < 0)
 94a:	409c                	lw	a5,0(s1)
 94c:	0007cf63          	bltz	a5,96a <csem_alloc+0x44>
 950:	00054f63          	bltz	a0,96e <csem_alloc+0x48>
        return -1;
    sem->value = initial_value;
 954:	0124a423          	sw	s2,8(s1)
    sem->waiting = 0;
 958:	0004a623          	sw	zero,12(s1)

    return 0;
 95c:	4501                	li	a0,0
}
 95e:	60e2                	ld	ra,24(sp)
 960:	6442                	ld	s0,16(sp)
 962:	64a2                	ld	s1,8(sp)
 964:	6902                	ld	s2,0(sp)
 966:	6105                	addi	sp,sp,32
 968:	8082                	ret
        return -1;
 96a:	557d                	li	a0,-1
 96c:	bfcd                	j	95e <csem_alloc+0x38>
 96e:	557d                	li	a0,-1
 970:	b7fd                	j	95e <csem_alloc+0x38>

0000000000000972 <csem_free>:
void            
csem_free(struct counting_semaphore *sem){
 972:	1101                	addi	sp,sp,-32
 974:	ec06                	sd	ra,24(sp)
 976:	e822                	sd	s0,16(sp)
 978:	e426                	sd	s1,8(sp)
 97a:	1000                	addi	s0,sp,32
    if(!sem){
 97c:	c10d                	beqz	a0,99e <csem_free+0x2c>
 97e:	84aa                	mv	s1,a0
        printf("invalid sem pointer in csem_free\n");
        return;
    }

    bsem_free(sem->S1_desc);
 980:	4108                	lw	a0,0(a0)
 982:	00000097          	auipc	ra,0x0
 986:	a32080e7          	jalr	-1486(ra) # 3b4 <bsem_free>
    bsem_free(sem->S2_desc);
 98a:	40c8                	lw	a0,4(s1)
 98c:	00000097          	auipc	ra,0x0
 990:	a28080e7          	jalr	-1496(ra) # 3b4 <bsem_free>

 994:	60e2                	ld	ra,24(sp)
 996:	6442                	ld	s0,16(sp)
 998:	64a2                	ld	s1,8(sp)
 99a:	6105                	addi	sp,sp,32
 99c:	8082                	ret
        printf("invalid sem pointer in csem_free\n");
 99e:	00000517          	auipc	a0,0x0
 9a2:	09250513          	addi	a0,a0,146 # a30 <digits+0x60>
 9a6:	00000097          	auipc	ra,0x0
 9aa:	d00080e7          	jalr	-768(ra) # 6a6 <printf>
        return;
 9ae:	b7dd                	j	994 <csem_free+0x22>
